
Smart Controle de Ventilador.elf:     file format elf32-avr

Sections:
Idx Name          Size      VMA       LMA       File off  Algn
  0 .data         00000068  00803e00  00001c30  00001ce4  2**0
                  CONTENTS, ALLOC, LOAD, DATA
  1 .text         00001c2a  00000000  00000000  000000b4  2**1
                  CONTENTS, ALLOC, LOAD, READONLY, CODE
  2 .rodata       00000006  00009c2a  00001c2a  00001cde  2**0
                  CONTENTS, ALLOC, LOAD, READONLY, DATA
  3 .bss          00000080  00803e68  00803e68  00001d4c  2**0
                  ALLOC
  4 .comment      00000060  00000000  00000000  00001d4c  2**0
                  CONTENTS, READONLY
  5 .note.gnu.avr.deviceinfo 0000003c  00000000  00000000  00001dac  2**2
                  CONTENTS, READONLY
  6 .debug_aranges 00000020  00000000  00000000  00001de8  2**3
                  CONTENTS, READONLY, DEBUGGING
  7 .debug_info   00001767  00000000  00000000  00001e08  2**0
                  CONTENTS, READONLY, DEBUGGING
  8 .debug_abbrev 00001596  00000000  00000000  0000356f  2**0
                  CONTENTS, READONLY, DEBUGGING
  9 .debug_line   0000018b  00000000  00000000  00004b05  2**0
                  CONTENTS, READONLY, DEBUGGING
 10 .debug_str    000009a7  00000000  00000000  00004c90  2**0
                  CONTENTS, READONLY, DEBUGGING

Disassembly of section .text:

00000000 <__vectors>:
       0:	19 c0       	rjmp	.+50     	; 0x34 <__ctors_end>
       2:	33 c0       	rjmp	.+102    	; 0x6a <__bad_interrupt>
       4:	32 c0       	rjmp	.+100    	; 0x6a <__bad_interrupt>
       6:	31 c0       	rjmp	.+98     	; 0x6a <__bad_interrupt>
       8:	30 c0       	rjmp	.+96     	; 0x6a <__bad_interrupt>
       a:	2f c0       	rjmp	.+94     	; 0x6a <__bad_interrupt>
       c:	81 c0       	rjmp	.+258    	; 0x110 <__vector_6>
       e:	2d c0       	rjmp	.+90     	; 0x6a <__bad_interrupt>
      10:	a5 c0       	rjmp	.+330    	; 0x15c <__vector_8>
      12:	2b c0       	rjmp	.+86     	; 0x6a <__bad_interrupt>
      14:	2a c0       	rjmp	.+84     	; 0x6a <__bad_interrupt>
      16:	29 c0       	rjmp	.+82     	; 0x6a <__bad_interrupt>
      18:	28 c0       	rjmp	.+80     	; 0x6a <__bad_interrupt>
      1a:	27 c0       	rjmp	.+78     	; 0x6a <__bad_interrupt>
      1c:	26 c0       	rjmp	.+76     	; 0x6a <__bad_interrupt>
      1e:	25 c0       	rjmp	.+74     	; 0x6a <__bad_interrupt>
      20:	24 c0       	rjmp	.+72     	; 0x6a <__bad_interrupt>
      22:	f7 c2       	rjmp	.+1518   	; 0x612 <__vector_17>
      24:	22 c0       	rjmp	.+68     	; 0x6a <__bad_interrupt>
      26:	21 c0       	rjmp	.+66     	; 0x6a <__bad_interrupt>
      28:	20 c0       	rjmp	.+64     	; 0x6a <__bad_interrupt>
      2a:	1f c0       	rjmp	.+62     	; 0x6a <__bad_interrupt>
      2c:	1e c0       	rjmp	.+60     	; 0x6a <__bad_interrupt>
      2e:	1d c0       	rjmp	.+58     	; 0x6a <__bad_interrupt>
      30:	1c c0       	rjmp	.+56     	; 0x6a <__bad_interrupt>
      32:	1b c0       	rjmp	.+54     	; 0x6a <__bad_interrupt>

00000034 <__ctors_end>:
      34:	11 24       	eor	r1, r1
      36:	1f be       	out	0x3f, r1	; 63
      38:	cf ef       	ldi	r28, 0xFF	; 255
      3a:	cd bf       	out	0x3d, r28	; 61
      3c:	df e3       	ldi	r29, 0x3F	; 63
      3e:	de bf       	out	0x3e, r29	; 62

00000040 <__do_copy_data>:
      40:	1e e3       	ldi	r17, 0x3E	; 62
      42:	a0 e0       	ldi	r26, 0x00	; 0
      44:	be e3       	ldi	r27, 0x3E	; 62
      46:	e0 e3       	ldi	r30, 0x30	; 48
      48:	fc e1       	ldi	r31, 0x1C	; 28
      4a:	02 c0       	rjmp	.+4      	; 0x50 <__do_copy_data+0x10>
      4c:	05 90       	lpm	r0, Z+
      4e:	0d 92       	st	X+, r0
      50:	a8 36       	cpi	r26, 0x68	; 104
      52:	b1 07       	cpc	r27, r17
      54:	d9 f7       	brne	.-10     	; 0x4c <__do_copy_data+0xc>

00000056 <__do_clear_bss>:
      56:	2e e3       	ldi	r18, 0x3E	; 62
      58:	a8 e6       	ldi	r26, 0x68	; 104
      5a:	be e3       	ldi	r27, 0x3E	; 62
      5c:	01 c0       	rjmp	.+2      	; 0x60 <.do_clear_bss_start>

0000005e <.do_clear_bss_loop>:
      5e:	1d 92       	st	X+, r1

00000060 <.do_clear_bss_start>:
      60:	a8 3e       	cpi	r26, 0xE8	; 232
      62:	b2 07       	cpc	r27, r18
      64:	e1 f7       	brne	.-8      	; 0x5e <.do_clear_bss_loop>
      66:	46 d1       	rcall	.+652    	; 0x2f4 <main>
      68:	de cd       	rjmp	.-1092   	; 0xfffffc26 <__eeprom_end+0xff7efc26>

0000006a <__bad_interrupt>:
      6a:	ca cf       	rjmp	.-108    	; 0x0 <__vectors>

0000006c <toggle_lamp_output>:
      6c:	50 9a       	sbi	0x0a, 0	; 10
      6e:	08 95       	ret

00000070 <set_fan_direction>:
      70:	90 91 6b 3e 	lds	r25, 0x3E6B	; 0x803e6b <fan_state>
      74:	91 30       	cpi	r25, 0x01	; 1
      76:	69 f4       	brne	.+26     	; 0x92 <__EEPROM_REGION_LENGTH__+0x12>
      78:	90 91 00 3e 	lds	r25, 0x3E00	; 0x803e00 <__DATA_REGION_ORIGIN__>
      7c:	98 17       	cp	r25, r24
      7e:	49 f0       	breq	.+18     	; 0x92 <__EEPROM_REGION_LENGTH__+0x12>
      80:	80 93 00 3e 	sts	0x3E00, r24	; 0x803e00 <__DATA_REGION_ORIGIN__>
      84:	80 e3       	ldi	r24, 0x30	; 48
      86:	95 e7       	ldi	r25, 0x75	; 117
      88:	80 93 68 3e 	sts	0x3E68, r24	; 0x803e68 <__data_end>
      8c:	90 93 69 3e 	sts	0x3E69, r25	; 0x803e69 <__data_end+0x1>
      90:	02 c0       	rjmp	.+4      	; 0x96 <__EEPROM_REGION_LENGTH__+0x16>
      92:	82 30       	cpi	r24, 0x02	; 2
      94:	11 f4       	brne	.+4      	; 0x9a <__EEPROM_REGION_LENGTH__+0x1a>
      96:	0b 98       	cbi	0x01, 3	; 1
      98:	0a 98       	cbi	0x01, 2	; 1
      9a:	08 95       	ret

0000009c <process_direction_relay>:
      9c:	80 91 00 3e 	lds	r24, 0x3E00	; 0x803e00 <__DATA_REGION_ORIGIN__>
      a0:	81 30       	cpi	r24, 0x01	; 1
      a2:	19 f4       	brne	.+6      	; 0xaa <process_direction_relay+0xe>
      a4:	0b 9a       	sbi	0x01, 3	; 1
      a6:	0a 98       	cbi	0x01, 2	; 1
      a8:	08 95       	ret
      aa:	81 11       	cpse	r24, r1
      ac:	02 c0       	rjmp	.+4      	; 0xb2 <process_direction_relay+0x16>
      ae:	0b 98       	cbi	0x01, 3	; 1
      b0:	0a 9a       	sbi	0x01, 2	; 1
      b2:	08 95       	ret

000000b4 <toggle_fan_output>:
      b4:	80 91 6b 3e 	lds	r24, 0x3E6B	; 0x803e6b <fan_state>
      b8:	81 30       	cpi	r24, 0x01	; 1
      ba:	29 f4       	brne	.+10     	; 0xc6 <toggle_fan_output+0x12>
      bc:	10 92 6b 3e 	sts	0x3E6B, r1	; 0x803e6b <fan_state>
      c0:	82 e0       	ldi	r24, 0x02	; 2
      c2:	d6 df       	rcall	.-84     	; 0x70 <set_fan_direction>
      c4:	04 c0       	rjmp	.+8      	; 0xce <toggle_fan_output+0x1a>
      c6:	81 e0       	ldi	r24, 0x01	; 1
      c8:	80 93 6b 3e 	sts	0x3E6B, r24	; 0x803e6b <fan_state>
      cc:	e7 df       	rcall	.-50     	; 0x9c <process_direction_relay>
      ce:	80 91 6b 3e 	lds	r24, 0x3E6B	; 0x803e6b <fan_state>
      d2:	6a c4       	rjmp	.+2260   	; 0x9a8 <triac_set_output_state>

000000d4 <increase_speed>:
      d4:	6c d4       	rcall	.+2264   	; 0x9ae <triac_get_output_state>
      d6:	81 30       	cpi	r24, 0x01	; 1
      d8:	51 f4       	brne	.+20     	; 0xee <increase_speed+0x1a>
      da:	80 91 6a 3e 	lds	r24, 0x3E6A	; 0x803e6a <angle>
      de:	88 23       	and	r24, r24
      e0:	19 f0       	breq	.+6      	; 0xe8 <increase_speed+0x14>
      e2:	8e 51       	subi	r24, 0x1E	; 30
      e4:	80 93 6a 3e 	sts	0x3E6A, r24	; 0x803e6a <angle>
      e8:	80 91 6a 3e 	lds	r24, 0x3E6A	; 0x803e6a <angle>
      ec:	57 c4       	rjmp	.+2222   	; 0x99c <triac_set_angle>
      ee:	08 95       	ret

000000f0 <decrease_speed>:
      f0:	5e d4       	rcall	.+2236   	; 0x9ae <triac_get_output_state>
      f2:	81 30       	cpi	r24, 0x01	; 1
      f4:	51 f4       	brne	.+20     	; 0x10a <decrease_speed+0x1a>
      f6:	80 91 6a 3e 	lds	r24, 0x3E6A	; 0x803e6a <angle>
      fa:	86 39       	cpi	r24, 0x96	; 150
      fc:	18 f4       	brcc	.+6      	; 0x104 <decrease_speed+0x14>
      fe:	82 5e       	subi	r24, 0xE2	; 226
     100:	80 93 6a 3e 	sts	0x3E6A, r24	; 0x803e6a <angle>
     104:	80 91 6a 3e 	lds	r24, 0x3E6A	; 0x803e6a <angle>
     108:	49 c4       	rjmp	.+2194   	; 0x99c <triac_set_angle>
     10a:	08 95       	ret

0000010c <atmel_start_init>:
     10c:	d6 d2       	rcall	.+1452   	; 0x6ba <system_init>
     10e:	98 c1       	rjmp	.+816    	; 0x440 <touch_init>

00000110 <__vector_6>:
     110:	1f 92       	push	r1
     112:	0f 92       	push	r0
     114:	0f b6       	in	r0, 0x3f	; 63
     116:	0f 92       	push	r0
     118:	11 24       	eor	r1, r1
     11a:	2f 93       	push	r18
     11c:	3f 93       	push	r19
     11e:	4f 93       	push	r20
     120:	5f 93       	push	r21
     122:	6f 93       	push	r22
     124:	7f 93       	push	r23
     126:	8f 93       	push	r24
     128:	9f 93       	push	r25
     12a:	af 93       	push	r26
     12c:	bf 93       	push	r27
     12e:	ef 93       	push	r30
     130:	ff 93       	push	r31
     132:	29 d2       	rcall	.+1106   	; 0x586 <touch_timer_handler>
     134:	82 e0       	ldi	r24, 0x02	; 2
     136:	80 93 43 01 	sts	0x0143, r24	; 0x800143 <gain_setting_int_cap+0x7f6519>
     13a:	ff 91       	pop	r31
     13c:	ef 91       	pop	r30
     13e:	bf 91       	pop	r27
     140:	af 91       	pop	r26
     142:	9f 91       	pop	r25
     144:	8f 91       	pop	r24
     146:	7f 91       	pop	r23
     148:	6f 91       	pop	r22
     14a:	5f 91       	pop	r21
     14c:	4f 91       	pop	r20
     14e:	3f 91       	pop	r19
     150:	2f 91       	pop	r18
     152:	0f 90       	pop	r0
     154:	0f be       	out	0x3f, r0	; 63
     156:	0f 90       	pop	r0
     158:	1f 90       	pop	r1
     15a:	18 95       	reti

0000015c <__vector_8>:
     15c:	1f 92       	push	r1
     15e:	0f 92       	push	r0
     160:	0f b6       	in	r0, 0x3f	; 63
     162:	0f 92       	push	r0
     164:	11 24       	eor	r1, r1
     166:	2f 93       	push	r18
     168:	3f 93       	push	r19
     16a:	4f 93       	push	r20
     16c:	5f 93       	push	r21
     16e:	6f 93       	push	r22
     170:	7f 93       	push	r23
     172:	8f 93       	push	r24
     174:	9f 93       	push	r25
     176:	af 93       	push	r26
     178:	bf 93       	push	r27
     17a:	ef 93       	push	r30
     17c:	ff 93       	push	r31
     17e:	80 91 68 3e 	lds	r24, 0x3E68	; 0x803e68 <__data_end>
     182:	90 91 69 3e 	lds	r25, 0x3E69	; 0x803e69 <__data_end+0x1>
     186:	00 97       	sbiw	r24, 0x00	; 0
     188:	49 f0       	breq	.+18     	; 0x19c <__vector_8+0x40>
     18a:	21 e0       	ldi	r18, 0x01	; 1
     18c:	20 93 6c 3e 	sts	0x3E6C, r18	; 0x803e6c <flag>
     190:	01 97       	sbiw	r24, 0x01	; 1
     192:	80 93 68 3e 	sts	0x3E68, r24	; 0x803e68 <__data_end>
     196:	90 93 69 3e 	sts	0x3E69, r25	; 0x803e69 <__data_end+0x1>
     19a:	07 c0       	rjmp	.+14     	; 0x1aa <__vector_8+0x4e>
     19c:	80 91 6c 3e 	lds	r24, 0x3E6C	; 0x803e6c <flag>
     1a0:	88 23       	and	r24, r24
     1a2:	19 f0       	breq	.+6      	; 0x1aa <__vector_8+0x4e>
     1a4:	10 92 6c 3e 	sts	0x3E6C, r1	; 0x803e6c <flag>
     1a8:	79 df       	rcall	.-270    	; 0x9c <process_direction_relay>
     1aa:	dd d2       	rcall	.+1466   	; 0x766 <triac_driver_tick>
     1ac:	81 e0       	ldi	r24, 0x01	; 1
     1ae:	80 93 0b 0a 	sts	0x0A0B, r24	; 0x800a0b <gain_setting_int_cap+0x7f6de1>
     1b2:	ff 91       	pop	r31
     1b4:	ef 91       	pop	r30
     1b6:	bf 91       	pop	r27
     1b8:	af 91       	pop	r26
     1ba:	9f 91       	pop	r25
     1bc:	8f 91       	pop	r24
     1be:	7f 91       	pop	r23
     1c0:	6f 91       	pop	r22
     1c2:	5f 91       	pop	r21
     1c4:	4f 91       	pop	r20
     1c6:	3f 91       	pop	r19
     1c8:	2f 91       	pop	r18
     1ca:	0f 90       	pop	r0
     1cc:	0f be       	out	0x3f, r0	; 63
     1ce:	0f 90       	pop	r0
     1d0:	1f 90       	pop	r1
     1d2:	18 95       	reti

000001d4 <touch_status_display>:
     1d4:	80 e0       	ldi	r24, 0x00	; 0
     1d6:	90 e0       	ldi	r25, 0x00	; 0
     1d8:	0d d2       	rcall	.+1050   	; 0x5f4 <get_sensor_state>
     1da:	80 78       	andi	r24, 0x80	; 128
     1dc:	80 93 73 3e 	sts	0x3E73, r24	; 0x803e73 <key_status>
     1e0:	90 91 72 3e 	lds	r25, 0x3E72	; 0x803e72 <flag0>
     1e4:	88 23       	and	r24, r24
     1e6:	39 f0       	breq	.+14     	; 0x1f6 <touch_status_display+0x22>
     1e8:	91 11       	cpse	r25, r1
     1ea:	08 c0       	rjmp	.+16     	; 0x1fc <touch_status_display+0x28>
     1ec:	3f df       	rcall	.-386    	; 0x6c <toggle_lamp_output>
     1ee:	81 e0       	ldi	r24, 0x01	; 1
     1f0:	80 93 72 3e 	sts	0x3E72, r24	; 0x803e72 <flag0>
     1f4:	03 c0       	rjmp	.+6      	; 0x1fc <touch_status_display+0x28>
     1f6:	91 11       	cpse	r25, r1
     1f8:	10 92 72 3e 	sts	0x3E72, r1	; 0x803e72 <flag0>
     1fc:	81 e0       	ldi	r24, 0x01	; 1
     1fe:	90 e0       	ldi	r25, 0x00	; 0
     200:	f9 d1       	rcall	.+1010   	; 0x5f4 <get_sensor_state>
     202:	80 78       	andi	r24, 0x80	; 128
     204:	80 93 73 3e 	sts	0x3E73, r24	; 0x803e73 <key_status>
     208:	90 91 71 3e 	lds	r25, 0x3E71	; 0x803e71 <flag1>
     20c:	88 23       	and	r24, r24
     20e:	39 f0       	breq	.+14     	; 0x21e <__DATA_REGION_LENGTH__+0x1e>
     210:	91 11       	cpse	r25, r1
     212:	08 c0       	rjmp	.+16     	; 0x224 <__DATA_REGION_LENGTH__+0x24>
     214:	4f df       	rcall	.-354    	; 0xb4 <toggle_fan_output>
     216:	81 e0       	ldi	r24, 0x01	; 1
     218:	80 93 71 3e 	sts	0x3E71, r24	; 0x803e71 <flag1>
     21c:	03 c0       	rjmp	.+6      	; 0x224 <__DATA_REGION_LENGTH__+0x24>
     21e:	91 11       	cpse	r25, r1
     220:	10 92 71 3e 	sts	0x3E71, r1	; 0x803e71 <flag1>
     224:	82 e0       	ldi	r24, 0x02	; 2
     226:	90 e0       	ldi	r25, 0x00	; 0
     228:	e5 d1       	rcall	.+970    	; 0x5f4 <get_sensor_state>
     22a:	80 78       	andi	r24, 0x80	; 128
     22c:	80 93 73 3e 	sts	0x3E73, r24	; 0x803e73 <key_status>
     230:	90 91 70 3e 	lds	r25, 0x3E70	; 0x803e70 <flag2>
     234:	88 23       	and	r24, r24
     236:	39 f0       	breq	.+14     	; 0x246 <__DATA_REGION_LENGTH__+0x46>
     238:	91 11       	cpse	r25, r1
     23a:	08 c0       	rjmp	.+16     	; 0x24c <__DATA_REGION_LENGTH__+0x4c>
     23c:	59 df       	rcall	.-334    	; 0xf0 <decrease_speed>
     23e:	81 e0       	ldi	r24, 0x01	; 1
     240:	80 93 70 3e 	sts	0x3E70, r24	; 0x803e70 <flag2>
     244:	03 c0       	rjmp	.+6      	; 0x24c <__DATA_REGION_LENGTH__+0x4c>
     246:	91 11       	cpse	r25, r1
     248:	10 92 70 3e 	sts	0x3E70, r1	; 0x803e70 <flag2>
     24c:	83 e0       	ldi	r24, 0x03	; 3
     24e:	90 e0       	ldi	r25, 0x00	; 0
     250:	d1 d1       	rcall	.+930    	; 0x5f4 <get_sensor_state>
     252:	80 78       	andi	r24, 0x80	; 128
     254:	80 93 73 3e 	sts	0x3E73, r24	; 0x803e73 <key_status>
     258:	90 91 6f 3e 	lds	r25, 0x3E6F	; 0x803e6f <flag3>
     25c:	88 23       	and	r24, r24
     25e:	41 f0       	breq	.+16     	; 0x270 <__DATA_REGION_LENGTH__+0x70>
     260:	91 11       	cpse	r25, r1
     262:	09 c0       	rjmp	.+18     	; 0x276 <__DATA_REGION_LENGTH__+0x76>
     264:	80 e0       	ldi	r24, 0x00	; 0
     266:	04 df       	rcall	.-504    	; 0x70 <set_fan_direction>
     268:	81 e0       	ldi	r24, 0x01	; 1
     26a:	80 93 6f 3e 	sts	0x3E6F, r24	; 0x803e6f <flag3>
     26e:	03 c0       	rjmp	.+6      	; 0x276 <__DATA_REGION_LENGTH__+0x76>
     270:	91 11       	cpse	r25, r1
     272:	10 92 6f 3e 	sts	0x3E6F, r1	; 0x803e6f <flag3>
     276:	84 e0       	ldi	r24, 0x04	; 4
     278:	90 e0       	ldi	r25, 0x00	; 0
     27a:	bc d1       	rcall	.+888    	; 0x5f4 <get_sensor_state>
     27c:	80 78       	andi	r24, 0x80	; 128
     27e:	80 93 73 3e 	sts	0x3E73, r24	; 0x803e73 <key_status>
     282:	90 91 6e 3e 	lds	r25, 0x3E6E	; 0x803e6e <flag4>
     286:	88 23       	and	r24, r24
     288:	39 f0       	breq	.+14     	; 0x298 <__DATA_REGION_LENGTH__+0x98>
     28a:	91 11       	cpse	r25, r1
     28c:	08 c0       	rjmp	.+16     	; 0x29e <__DATA_REGION_LENGTH__+0x9e>
     28e:	22 df       	rcall	.-444    	; 0xd4 <increase_speed>
     290:	81 e0       	ldi	r24, 0x01	; 1
     292:	80 93 6e 3e 	sts	0x3E6E, r24	; 0x803e6e <flag4>
     296:	03 c0       	rjmp	.+6      	; 0x29e <__DATA_REGION_LENGTH__+0x9e>
     298:	91 11       	cpse	r25, r1
     29a:	10 92 6e 3e 	sts	0x3E6E, r1	; 0x803e6e <flag4>
     29e:	85 e0       	ldi	r24, 0x05	; 5
     2a0:	90 e0       	ldi	r25, 0x00	; 0
     2a2:	a8 d1       	rcall	.+848    	; 0x5f4 <get_sensor_state>
     2a4:	80 78       	andi	r24, 0x80	; 128
     2a6:	80 93 73 3e 	sts	0x3E73, r24	; 0x803e73 <key_status>
     2aa:	90 91 6d 3e 	lds	r25, 0x3E6D	; 0x803e6d <flag5>
     2ae:	88 23       	and	r24, r24
     2b0:	41 f0       	breq	.+16     	; 0x2c2 <__DATA_REGION_LENGTH__+0xc2>
     2b2:	91 11       	cpse	r25, r1
     2b4:	09 c0       	rjmp	.+18     	; 0x2c8 <__DATA_REGION_LENGTH__+0xc8>
     2b6:	81 e0       	ldi	r24, 0x01	; 1
     2b8:	db de       	rcall	.-586    	; 0x70 <set_fan_direction>
     2ba:	81 e0       	ldi	r24, 0x01	; 1
     2bc:	80 93 6d 3e 	sts	0x3E6D, r24	; 0x803e6d <flag5>
     2c0:	08 95       	ret
     2c2:	91 11       	cpse	r25, r1
     2c4:	10 92 6d 3e 	sts	0x3E6D, r1	; 0x803e6d <flag5>
     2c8:	08 95       	ret

000002ca <touch_example>:
     2ca:	78 94       	sei
     2cc:	27 d1       	rcall	.+590    	; 0x51c <touch_process>
     2ce:	80 91 76 3e 	lds	r24, 0x3E76	; 0x803e76 <measurement_done_touch>
     2d2:	81 30       	cpi	r24, 0x01	; 1
     2d4:	19 f4       	brne	.+6      	; 0x2dc <touch_example+0x12>
     2d6:	10 92 76 3e 	sts	0x3E76, r1	; 0x803e76 <measurement_done_touch>
     2da:	7c cf       	rjmp	.-264    	; 0x1d4 <touch_status_display>
     2dc:	08 95       	ret

000002de <Zerocross_get_level>:
     2de:	86 b1       	in	r24, 0x06	; 6
     2e0:	85 fb       	bst	r24, 5
     2e2:	88 27       	eor	r24, r24
     2e4:	80 f9       	bld	r24, 0
     2e6:	08 95       	ret

000002e8 <Triac_set_level>:
     2e8:	88 23       	and	r24, r24
     2ea:	11 f0       	breq	.+4      	; 0x2f0 <Triac_set_level+0x8>
     2ec:	09 9a       	sbi	0x01, 1	; 1
     2ee:	08 95       	ret
     2f0:	09 98       	cbi	0x01, 1	; 1
     2f2:	08 95       	ret

000002f4 <main>:
     2f4:	cf 93       	push	r28
     2f6:	df 93       	push	r29
     2f8:	cd b7       	in	r28, 0x3d	; 61
     2fa:	de b7       	in	r29, 0x3e	; 62
     2fc:	26 97       	sbiw	r28, 0x06	; 6
     2fe:	cd bf       	out	0x3d, r28	; 61
     300:	de bf       	out	0x3e, r29	; 62
     302:	04 df       	rcall	.-504    	; 0x10c <atmel_start_init>
     304:	8f e6       	ldi	r24, 0x6F	; 111
     306:	91 e0       	ldi	r25, 0x01	; 1
     308:	48 2f       	mov	r20, r24
     30a:	89 83       	std	Y+1, r24	; 0x01
     30c:	9a 83       	std	Y+2, r25	; 0x02
     30e:	84 e7       	ldi	r24, 0x74	; 116
     310:	91 e0       	ldi	r25, 0x01	; 1
     312:	68 2f       	mov	r22, r24
     314:	8b 83       	std	Y+3, r24	; 0x03
     316:	9c 83       	std	Y+4, r25	; 0x04
     318:	5a 81       	ldd	r21, Y+2	; 0x02
     31a:	7c 81       	ldd	r23, Y+4	; 0x04
     31c:	80 e0       	ldi	r24, 0x00	; 0
     31e:	90 e0       	ldi	r25, 0x00	; 0
     320:	1e d3       	rcall	.+1596   	; 0x95e <triac_driver_init>
     322:	d3 df       	rcall	.-90     	; 0x2ca <touch_example>
     324:	fe cf       	rjmp	.-4      	; 0x322 <main+0x2e>

00000326 <datastreamer_init>:
     326:	08 95       	ret

00000328 <datastreamer_transmit>:
     328:	cf 93       	push	r28
     32a:	c8 2f       	mov	r28, r24
     32c:	07 d2       	rcall	.+1038   	; 0x73c <USART_is_tx_ready>
     32e:	88 23       	and	r24, r24
     330:	e9 f3       	breq	.-6      	; 0x32c <datastreamer_transmit+0x4>
     332:	8c 2f       	mov	r24, r28
     334:	11 d2       	rcall	.+1058   	; 0x758 <USART_write>
     336:	08 d2       	rcall	.+1040   	; 0x748 <USART_is_tx_busy>
     338:	81 11       	cpse	r24, r1
     33a:	fd cf       	rjmp	.-6      	; 0x336 <datastreamer_transmit+0xe>
     33c:	cf 91       	pop	r28
     33e:	08 95       	ret

00000340 <datastreamer_output>:
     340:	0f 93       	push	r16
     342:	1f 93       	push	r17
     344:	cf 93       	push	r28
     346:	df 93       	push	r29
     348:	00 d0       	rcall	.+0      	; 0x34a <datastreamer_output+0xa>
     34a:	cd b7       	in	r28, 0x3d	; 61
     34c:	de b7       	in	r29, 0x3e	; 62
     34e:	80 91 74 3e 	lds	r24, 0x3E74	; 0x803e74 <sequence.4047>
     352:	8f 70       	andi	r24, 0x0F	; 15
     354:	41 f0       	breq	.+16     	; 0x366 <datastreamer_output+0x26>
     356:	85 e5       	ldi	r24, 0x55	; 85
     358:	e7 df       	rcall	.-50     	; 0x328 <datastreamer_transmit>
     35a:	80 91 74 3e 	lds	r24, 0x3E74	; 0x803e74 <sequence.4047>
     35e:	e4 df       	rcall	.-56     	; 0x328 <datastreamer_transmit>
     360:	19 82       	std	Y+1, r1	; 0x01
     362:	1a 82       	std	Y+2, r1	; 0x02
     364:	45 c0       	rjmp	.+138    	; 0x3f0 <datastreamer_output+0xb0>
     366:	01 e0       	ldi	r16, 0x01	; 1
     368:	1e e3       	ldi	r17, 0x3E	; 62
     36a:	fe e3       	ldi	r31, 0x3E	; 62
     36c:	04 31       	cpi	r16, 0x14	; 20
     36e:	1f 07       	cpc	r17, r31
     370:	91 f3       	breq	.-28     	; 0x356 <datastreamer_output+0x16>
     372:	f8 01       	movw	r30, r16
     374:	81 91       	ld	r24, Z+
     376:	8f 01       	movw	r16, r30
     378:	d7 df       	rcall	.-82     	; 0x328 <datastreamer_transmit>
     37a:	f7 cf       	rjmp	.-18     	; 0x36a <datastreamer_output+0x2a>
     37c:	89 81       	ldd	r24, Y+1	; 0x01
     37e:	9a 81       	ldd	r25, Y+2	; 0x02
     380:	12 d1       	rcall	.+548    	; 0x5a6 <get_sensor_node_signal>
     382:	19 2f       	mov	r17, r25
     384:	d1 df       	rcall	.-94     	; 0x328 <datastreamer_transmit>
     386:	81 2f       	mov	r24, r17
     388:	cf df       	rcall	.-98     	; 0x328 <datastreamer_transmit>
     38a:	89 81       	ldd	r24, Y+1	; 0x01
     38c:	9a 81       	ldd	r25, Y+2	; 0x02
     38e:	18 d1       	rcall	.+560    	; 0x5c0 <get_sensor_node_reference>
     390:	19 2f       	mov	r17, r25
     392:	ca df       	rcall	.-108    	; 0x328 <datastreamer_transmit>
     394:	81 2f       	mov	r24, r17
     396:	c8 df       	rcall	.-112    	; 0x328 <datastreamer_transmit>
     398:	89 81       	ldd	r24, Y+1	; 0x01
     39a:	9a 81       	ldd	r25, Y+2	; 0x02
     39c:	04 d1       	rcall	.+520    	; 0x5a6 <get_sensor_node_signal>
     39e:	8c 01       	movw	r16, r24
     3a0:	89 81       	ldd	r24, Y+1	; 0x01
     3a2:	9a 81       	ldd	r25, Y+2	; 0x02
     3a4:	0d d1       	rcall	.+538    	; 0x5c0 <get_sensor_node_reference>
     3a6:	08 1b       	sub	r16, r24
     3a8:	19 0b       	sbc	r17, r25
     3aa:	80 2f       	mov	r24, r16
     3ac:	bd df       	rcall	.-134    	; 0x328 <datastreamer_transmit>
     3ae:	81 2f       	mov	r24, r17
     3b0:	bb df       	rcall	.-138    	; 0x328 <datastreamer_transmit>
     3b2:	89 81       	ldd	r24, Y+1	; 0x01
     3b4:	9a 81       	ldd	r25, Y+2	; 0x02
     3b6:	11 d1       	rcall	.+546    	; 0x5da <get_sensor_cc_val>
     3b8:	19 2f       	mov	r17, r25
     3ba:	b6 df       	rcall	.-148    	; 0x328 <datastreamer_transmit>
     3bc:	81 2f       	mov	r24, r17
     3be:	b4 df       	rcall	.-152    	; 0x328 <datastreamer_transmit>
     3c0:	89 81       	ldd	r24, Y+1	; 0x01
     3c2:	9a 81       	ldd	r25, Y+2	; 0x02
     3c4:	17 d1       	rcall	.+558    	; 0x5f4 <get_sensor_state>
     3c6:	87 ff       	sbrs	r24, 7
     3c8:	18 c0       	rjmp	.+48     	; 0x3fa <datastreamer_output+0xba>
     3ca:	81 e0       	ldi	r24, 0x01	; 1
     3cc:	ad df       	rcall	.-166    	; 0x328 <datastreamer_transmit>
     3ce:	89 81       	ldd	r24, Y+1	; 0x01
     3d0:	9a 81       	ldd	r25, Y+2	; 0x02
     3d2:	fc 01       	movw	r30, r24
     3d4:	ee 0f       	add	r30, r30
     3d6:	ff 1f       	adc	r31, r31
     3d8:	8e 0f       	add	r24, r30
     3da:	9f 1f       	adc	r25, r31
     3dc:	fc 01       	movw	r30, r24
     3de:	e4 5e       	subi	r30, 0xE4	; 228
     3e0:	f1 4c       	sbci	r31, 0xC1	; 193
     3e2:	80 81       	ld	r24, Z
     3e4:	a1 df       	rcall	.-190    	; 0x328 <datastreamer_transmit>
     3e6:	89 81       	ldd	r24, Y+1	; 0x01
     3e8:	9a 81       	ldd	r25, Y+2	; 0x02
     3ea:	01 96       	adiw	r24, 0x01	; 1
     3ec:	89 83       	std	Y+1, r24	; 0x01
     3ee:	9a 83       	std	Y+2, r25	; 0x02
     3f0:	89 81       	ldd	r24, Y+1	; 0x01
     3f2:	9a 81       	ldd	r25, Y+2	; 0x02
     3f4:	06 97       	sbiw	r24, 0x06	; 6
     3f6:	10 f2       	brcs	.-124    	; 0x37c <datastreamer_output+0x3c>
     3f8:	02 c0       	rjmp	.+4      	; 0x3fe <datastreamer_output+0xbe>
     3fa:	80 e0       	ldi	r24, 0x00	; 0
     3fc:	e7 cf       	rjmp	.-50     	; 0x3cc <datastreamer_output+0x8c>
     3fe:	80 91 75 3e 	lds	r24, 0x3E75	; 0x803e75 <module_error_code>
     402:	92 df       	rcall	.-220    	; 0x328 <datastreamer_transmit>
     404:	80 91 74 3e 	lds	r24, 0x3E74	; 0x803e74 <sequence.4047>
     408:	91 e0       	ldi	r25, 0x01	; 1
     40a:	98 0f       	add	r25, r24
     40c:	90 93 74 3e 	sts	0x3E74, r25	; 0x803e74 <sequence.4047>
     410:	8b df       	rcall	.-234    	; 0x328 <datastreamer_transmit>
     412:	8a ea       	ldi	r24, 0xAA	; 170
     414:	89 df       	rcall	.-238    	; 0x328 <datastreamer_transmit>
     416:	0f 90       	pop	r0
     418:	0f 90       	pop	r0
     41a:	df 91       	pop	r29
     41c:	cf 91       	pop	r28
     41e:	1f 91       	pop	r17
     420:	0f 91       	pop	r16
     422:	08 95       	ret

00000424 <qtm_measure_complete_callback>:
     424:	81 e0       	ldi	r24, 0x01	; 1
     426:	80 93 77 3e 	sts	0x3E77, r24	; 0x803e77 <touch_postprocess_request>
     42a:	08 95       	ret

0000042c <Timer_set_period>:
     42c:	90 91 41 01 	lds	r25, 0x0141	; 0x800141 <gain_setting_int_cap+0x7f6517>
     430:	92 fd       	sbrc	r25, 2
     432:	fc cf       	rjmp	.-8      	; 0x42c <Timer_set_period>
     434:	90 e0       	ldi	r25, 0x00	; 0
     436:	80 93 4a 01 	sts	0x014A, r24	; 0x80014a <gain_setting_int_cap+0x7f6520>
     43a:	90 93 4b 01 	sts	0x014B, r25	; 0x80014b <gain_setting_int_cap+0x7f6521>
     43e:	08 95       	ret

00000440 <touch_init>:
     440:	0f 93       	push	r16
     442:	1f 93       	push	r17
     444:	cf 93       	push	r28
     446:	df 93       	push	r29
     448:	80 e2       	ldi	r24, 0x20	; 32
     44a:	f0 df       	rcall	.-32     	; 0x42c <Timer_set_period>
     44c:	80 91 31 04 	lds	r24, 0x0431	; 0x800431 <gain_setting_int_cap+0x7f6807>
     450:	87 7f       	andi	r24, 0xF7	; 247
     452:	80 93 31 04 	sts	0x0431, r24	; 0x800431 <gain_setting_int_cap+0x7f6807>
     456:	80 91 31 04 	lds	r24, 0x0431	; 0x800431 <gain_setting_int_cap+0x7f6807>
     45a:	88 7f       	andi	r24, 0xF8	; 248
     45c:	84 60       	ori	r24, 0x04	; 4
     45e:	80 93 31 04 	sts	0x0431, r24	; 0x800431 <gain_setting_int_cap+0x7f6807>
     462:	80 91 15 04 	lds	r24, 0x0415	; 0x800415 <gain_setting_int_cap+0x7f67eb>
     466:	87 7f       	andi	r24, 0xF7	; 247
     468:	80 93 15 04 	sts	0x0415, r24	; 0x800415 <gain_setting_int_cap+0x7f67eb>
     46c:	80 91 15 04 	lds	r24, 0x0415	; 0x800415 <gain_setting_int_cap+0x7f67eb>
     470:	88 7f       	andi	r24, 0xF8	; 248
     472:	84 60       	ori	r24, 0x04	; 4
     474:	80 93 15 04 	sts	0x0415, r24	; 0x800415 <gain_setting_int_cap+0x7f67eb>
     478:	80 91 30 04 	lds	r24, 0x0430	; 0x800430 <gain_setting_int_cap+0x7f6806>
     47c:	87 7f       	andi	r24, 0xF7	; 247
     47e:	80 93 30 04 	sts	0x0430, r24	; 0x800430 <gain_setting_int_cap+0x7f6806>
     482:	80 91 30 04 	lds	r24, 0x0430	; 0x800430 <gain_setting_int_cap+0x7f6806>
     486:	88 7f       	andi	r24, 0xF8	; 248
     488:	84 60       	ori	r24, 0x04	; 4
     48a:	80 93 30 04 	sts	0x0430, r24	; 0x800430 <gain_setting_int_cap+0x7f6806>
     48e:	80 91 17 04 	lds	r24, 0x0417	; 0x800417 <gain_setting_int_cap+0x7f67ed>
     492:	87 7f       	andi	r24, 0xF7	; 247
     494:	80 93 17 04 	sts	0x0417, r24	; 0x800417 <gain_setting_int_cap+0x7f67ed>
     498:	80 91 17 04 	lds	r24, 0x0417	; 0x800417 <gain_setting_int_cap+0x7f67ed>
     49c:	88 7f       	andi	r24, 0xF8	; 248
     49e:	84 60       	ori	r24, 0x04	; 4
     4a0:	80 93 17 04 	sts	0x0417, r24	; 0x800417 <gain_setting_int_cap+0x7f67ed>
     4a4:	80 91 16 04 	lds	r24, 0x0416	; 0x800416 <gain_setting_int_cap+0x7f67ec>
     4a8:	87 7f       	andi	r24, 0xF7	; 247
     4aa:	80 93 16 04 	sts	0x0416, r24	; 0x800416 <gain_setting_int_cap+0x7f67ec>
     4ae:	80 91 16 04 	lds	r24, 0x0416	; 0x800416 <gain_setting_int_cap+0x7f67ec>
     4b2:	88 7f       	andi	r24, 0xF8	; 248
     4b4:	84 60       	ori	r24, 0x04	; 4
     4b6:	80 93 16 04 	sts	0x0416, r24	; 0x800416 <gain_setting_int_cap+0x7f67ec>
     4ba:	80 91 14 04 	lds	r24, 0x0414	; 0x800414 <gain_setting_int_cap+0x7f67ea>
     4be:	87 7f       	andi	r24, 0xF7	; 247
     4c0:	80 93 14 04 	sts	0x0414, r24	; 0x800414 <gain_setting_int_cap+0x7f67ea>
     4c4:	80 91 14 04 	lds	r24, 0x0414	; 0x800414 <gain_setting_int_cap+0x7f67ea>
     4c8:	88 7f       	andi	r24, 0xF8	; 248
     4ca:	84 60       	ori	r24, 0x04	; 4
     4cc:	80 93 14 04 	sts	0x0414, r24	; 0x800414 <gain_setting_int_cap+0x7f67ea>
     4d0:	88 e3       	ldi	r24, 0x38	; 56
     4d2:	9e e3       	ldi	r25, 0x3E	; 62
     4d4:	dc d8       	rcall	.-3656   	; 0xfffff68e <__eeprom_end+0xff7ef68e>
     4d6:	84 eb       	ldi	r24, 0xB4	; 180
     4d8:	9e e3       	ldi	r25, 0x3E	; 62
     4da:	11 d9       	rcall	.-3550   	; 0xfffff6fe <__eeprom_end+0xff7ef6fe>
     4dc:	c0 e0       	ldi	r28, 0x00	; 0
     4de:	d0 e0       	ldi	r29, 0x00	; 0
     4e0:	be 01       	movw	r22, r28
     4e2:	88 e3       	ldi	r24, 0x38	; 56
     4e4:	9e e3       	ldi	r25, 0x3E	; 62
     4e6:	79 d9       	rcall	.-3342   	; 0xfffff7da <__eeprom_end+0xff7ef7da>
     4e8:	be 01       	movw	r22, r28
     4ea:	88 e3       	ldi	r24, 0x38	; 56
     4ec:	9e e3       	ldi	r25, 0x3E	; 62
     4ee:	94 d9       	rcall	.-3288   	; 0xfffff818 <__eeprom_end+0xff7ef818>
     4f0:	21 96       	adiw	r28, 0x01	; 1
     4f2:	c6 30       	cpi	r28, 0x06	; 6
     4f4:	d1 05       	cpc	r29, r1
     4f6:	a1 f7       	brne	.-24     	; 0x4e0 <touch_init+0xa0>
     4f8:	06 e9       	ldi	r16, 0x96	; 150
     4fa:	1e e3       	ldi	r17, 0x3E	; 62
     4fc:	c0 e0       	ldi	r28, 0x00	; 0
     4fe:	a8 01       	movw	r20, r16
     500:	6c 2f       	mov	r22, r28
     502:	84 e1       	ldi	r24, 0x14	; 20
     504:	9e e3       	ldi	r25, 0x3E	; 62
     506:	ca d2       	rcall	.+1428   	; 0xa9c <qtm_init_sensor_key>
     508:	cf 5f       	subi	r28, 0xFF	; 255
     50a:	0b 5f       	subi	r16, 0xFB	; 251
     50c:	1f 4f       	sbci	r17, 0xFF	; 255
     50e:	c6 30       	cpi	r28, 0x06	; 6
     510:	b1 f7       	brne	.-20     	; 0x4fe <touch_init+0xbe>
     512:	df 91       	pop	r29
     514:	cf 91       	pop	r28
     516:	1f 91       	pop	r17
     518:	0f 91       	pop	r16
     51a:	05 cf       	rjmp	.-502    	; 0x326 <datastreamer_init>

0000051c <touch_process>:
     51c:	cf 93       	push	r28
     51e:	80 91 78 3e 	lds	r24, 0x3E78	; 0x803e78 <time_to_measure_touch_flag>
     522:	81 30       	cpi	r24, 0x01	; 1
     524:	49 f4       	brne	.+18     	; 0x538 <touch_process+0x1c>
     526:	62 e1       	ldi	r22, 0x12	; 18
     528:	72 e0       	ldi	r23, 0x02	; 2
     52a:	88 e3       	ldi	r24, 0x38	; 56
     52c:	9e e3       	ldi	r25, 0x3E	; 62
     52e:	f1 d8       	rcall	.-3614   	; 0xfffff712 <__eeprom_end+0xff7ef712>
     530:	81 11       	cpse	r24, r1
     532:	02 c0       	rjmp	.+4      	; 0x538 <touch_process+0x1c>
     534:	10 92 78 3e 	sts	0x3E78, r1	; 0x803e78 <time_to_measure_touch_flag>
     538:	c0 91 77 3e 	lds	r28, 0x3E77	; 0x803e77 <touch_postprocess_request>
     53c:	c1 30       	cpi	r28, 0x01	; 1
     53e:	09 f5       	brne	.+66     	; 0x582 <touch_process+0x66>
     540:	10 92 77 3e 	sts	0x3E77, r1	; 0x803e77 <touch_postprocess_request>
     544:	26 d7       	rcall	.+3660   	; 0x1392 <qtm_acquisition_process>
     546:	81 11       	cpse	r24, r1
     548:	09 c0       	rjmp	.+18     	; 0x55c <touch_process+0x40>
     54a:	84 e1       	ldi	r24, 0x14	; 20
     54c:	9e e3       	ldi	r25, 0x3E	; 62
     54e:	c5 d2       	rcall	.+1418   	; 0xada <qtm_key_sensors_process>
     550:	88 23       	and	r24, r24
     552:	39 f0       	breq	.+14     	; 0x562 <touch_process+0x46>
     554:	82 e0       	ldi	r24, 0x02	; 2
     556:	80 93 75 3e 	sts	0x3E75, r24	; 0x803e75 <module_error_code>
     55a:	02 c0       	rjmp	.+4      	; 0x560 <touch_process+0x44>
     55c:	c0 93 75 3e 	sts	0x3E75, r28	; 0x803e75 <module_error_code>
     560:	ef de       	rcall	.-546    	; 0x340 <datastreamer_output>
     562:	e0 91 14 3e 	lds	r30, 0x3E14	; 0x803e14 <qtlib_key_set1>
     566:	f0 91 15 3e 	lds	r31, 0x3E15	; 0x803e15 <qtlib_key_set1+0x1>
     56a:	80 81       	ld	r24, Z
     56c:	87 ff       	sbrs	r24, 7
     56e:	04 c0       	rjmp	.+8      	; 0x578 <touch_process+0x5c>
     570:	81 e0       	ldi	r24, 0x01	; 1
     572:	80 93 78 3e 	sts	0x3E78, r24	; 0x803e78 <time_to_measure_touch_flag>
     576:	03 c0       	rjmp	.+6      	; 0x57e <touch_process+0x62>
     578:	81 e0       	ldi	r24, 0x01	; 1
     57a:	80 93 76 3e 	sts	0x3E76, r24	; 0x803e76 <measurement_done_touch>
     57e:	cf 91       	pop	r28
     580:	df ce       	rjmp	.-578    	; 0x340 <datastreamer_output>
     582:	cf 91       	pop	r28
     584:	08 95       	ret

00000586 <touch_timer_handler>:
     586:	80 91 95 3e 	lds	r24, 0x3E95	; 0x803e95 <interrupt_cnt>
     58a:	8f 5f       	subi	r24, 0xFF	; 255
     58c:	84 31       	cpi	r24, 0x14	; 20
     58e:	18 f4       	brcc	.+6      	; 0x596 <touch_timer_handler+0x10>
     590:	80 93 95 3e 	sts	0x3E95, r24	; 0x803e95 <interrupt_cnt>
     594:	08 95       	ret
     596:	10 92 95 3e 	sts	0x3E95, r1	; 0x803e95 <interrupt_cnt>
     59a:	81 e0       	ldi	r24, 0x01	; 1
     59c:	80 93 78 3e 	sts	0x3E78, r24	; 0x803e78 <time_to_measure_touch_flag>
     5a0:	84 e1       	ldi	r24, 0x14	; 20
     5a2:	90 e0       	ldi	r25, 0x00	; 0
     5a4:	70 c2       	rjmp	.+1248   	; 0xa86 <qtm_update_qtlib_timer>

000005a6 <get_sensor_node_signal>:
     5a6:	25 e0       	ldi	r18, 0x05	; 5
     5a8:	ac 01       	movw	r20, r24
     5aa:	24 9f       	mul	r18, r20
     5ac:	c0 01       	movw	r24, r0
     5ae:	25 9f       	mul	r18, r21
     5b0:	90 0d       	add	r25, r0
     5b2:	11 24       	eor	r1, r1
     5b4:	fc 01       	movw	r30, r24
     5b6:	ea 56       	subi	r30, 0x6A	; 106
     5b8:	f1 4c       	sbci	r31, 0xC1	; 193
     5ba:	81 81       	ldd	r24, Z+1	; 0x01
     5bc:	92 81       	ldd	r25, Z+2	; 0x02
     5be:	08 95       	ret

000005c0 <get_sensor_node_reference>:
     5c0:	26 e0       	ldi	r18, 0x06	; 6
     5c2:	ac 01       	movw	r20, r24
     5c4:	24 9f       	mul	r18, r20
     5c6:	c0 01       	movw	r24, r0
     5c8:	25 9f       	mul	r18, r21
     5ca:	90 0d       	add	r25, r0
     5cc:	11 24       	eor	r1, r1
     5ce:	fc 01       	movw	r30, r24
     5d0:	e0 54       	subi	r30, 0x40	; 64
     5d2:	f1 4c       	sbci	r31, 0xC1	; 193
     5d4:	84 81       	ldd	r24, Z+4	; 0x04
     5d6:	95 81       	ldd	r25, Z+5	; 0x05
     5d8:	08 95       	ret

000005da <get_sensor_cc_val>:
     5da:	25 e0       	ldi	r18, 0x05	; 5
     5dc:	ac 01       	movw	r20, r24
     5de:	24 9f       	mul	r18, r20
     5e0:	c0 01       	movw	r24, r0
     5e2:	25 9f       	mul	r18, r21
     5e4:	90 0d       	add	r25, r0
     5e6:	11 24       	eor	r1, r1
     5e8:	fc 01       	movw	r30, r24
     5ea:	ea 56       	subi	r30, 0x6A	; 106
     5ec:	f1 4c       	sbci	r31, 0xC1	; 193
     5ee:	83 81       	ldd	r24, Z+3	; 0x03
     5f0:	94 81       	ldd	r25, Z+4	; 0x04
     5f2:	08 95       	ret

000005f4 <get_sensor_state>:
     5f4:	26 e0       	ldi	r18, 0x06	; 6
     5f6:	ac 01       	movw	r20, r24
     5f8:	24 9f       	mul	r18, r20
     5fa:	c0 01       	movw	r24, r0
     5fc:	25 9f       	mul	r18, r21
     5fe:	90 0d       	add	r25, r0
     600:	11 24       	eor	r1, r1
     602:	e0 91 18 3e 	lds	r30, 0x3E18	; 0x803e18 <qtlib_key_set1+0x4>
     606:	f0 91 19 3e 	lds	r31, 0x3E19	; 0x803e19 <qtlib_key_set1+0x5>
     60a:	e8 0f       	add	r30, r24
     60c:	f9 1f       	adc	r31, r25
     60e:	80 81       	ld	r24, Z
     610:	08 95       	ret

00000612 <__vector_17>:
     612:	1f 92       	push	r1
     614:	0f 92       	push	r0
     616:	0f b6       	in	r0, 0x3f	; 63
     618:	0f 92       	push	r0
     61a:	11 24       	eor	r1, r1
     61c:	2f 93       	push	r18
     61e:	3f 93       	push	r19
     620:	4f 93       	push	r20
     622:	5f 93       	push	r21
     624:	6f 93       	push	r22
     626:	7f 93       	push	r23
     628:	8f 93       	push	r24
     62a:	9f 93       	push	r25
     62c:	af 93       	push	r26
     62e:	bf 93       	push	r27
     630:	ef 93       	push	r30
     632:	ff 93       	push	r31
     634:	32 d9       	rcall	.-3484   	; 0xfffff89a <__eeprom_end+0xff7ef89a>
     636:	ff 91       	pop	r31
     638:	ef 91       	pop	r30
     63a:	bf 91       	pop	r27
     63c:	af 91       	pop	r26
     63e:	9f 91       	pop	r25
     640:	8f 91       	pop	r24
     642:	7f 91       	pop	r23
     644:	6f 91       	pop	r22
     646:	5f 91       	pop	r21
     648:	4f 91       	pop	r20
     64a:	3f 91       	pop	r19
     64c:	2f 91       	pop	r18
     64e:	0f 90       	pop	r0
     650:	0f be       	out	0x3f, r0	; 63
     652:	0f 90       	pop	r0
     654:	1f 90       	pop	r1
     656:	18 95       	reti

00000658 <BOD_init>:
     658:	80 e0       	ldi	r24, 0x00	; 0
     65a:	08 95       	ret

0000065c <CLKCTRL_init>:
     65c:	40 e0       	ldi	r20, 0x00	; 0
     65e:	68 ed       	ldi	r22, 0xD8	; 216
     660:	81 e6       	ldi	r24, 0x61	; 97
     662:	90 e0       	ldi	r25, 0x00	; 0
     664:	42 d0       	rcall	.+132    	; 0x6ea <protected_write_io>
     666:	80 e0       	ldi	r24, 0x00	; 0
     668:	08 95       	ret

0000066a <CPUINT_init>:
     66a:	78 94       	sei
     66c:	80 e0       	ldi	r24, 0x00	; 0
     66e:	08 95       	ret

00000670 <mcu_init>:
     670:	e0 e1       	ldi	r30, 0x10	; 16
     672:	f4 e0       	ldi	r31, 0x04	; 4
     674:	80 81       	ld	r24, Z
     676:	88 60       	ori	r24, 0x08	; 8
     678:	81 93       	st	Z+, r24
     67a:	e8 31       	cpi	r30, 0x18	; 24
     67c:	84 e0       	ldi	r24, 0x04	; 4
     67e:	f8 07       	cpc	r31, r24
     680:	c9 f7       	brne	.-14     	; 0x674 <mcu_init+0x4>
     682:	e0 e3       	ldi	r30, 0x30	; 48
     684:	f4 e0       	ldi	r31, 0x04	; 4
     686:	80 81       	ld	r24, Z
     688:	88 60       	ori	r24, 0x08	; 8
     68a:	81 93       	st	Z+, r24
     68c:	e8 33       	cpi	r30, 0x38	; 56
     68e:	84 e0       	ldi	r24, 0x04	; 4
     690:	f8 07       	cpc	r31, r24
     692:	c9 f7       	brne	.-14     	; 0x686 <mcu_init+0x16>
     694:	e0 e5       	ldi	r30, 0x50	; 80
     696:	f4 e0       	ldi	r31, 0x04	; 4
     698:	80 81       	ld	r24, Z
     69a:	88 60       	ori	r24, 0x08	; 8
     69c:	81 93       	st	Z+, r24
     69e:	e8 35       	cpi	r30, 0x58	; 88
     6a0:	84 e0       	ldi	r24, 0x04	; 4
     6a2:	f8 07       	cpc	r31, r24
     6a4:	c9 f7       	brne	.-14     	; 0x698 <mcu_init+0x28>
     6a6:	08 95       	ret

000006a8 <USART_initialization>:
     6a8:	23 98       	cbi	0x04, 3	; 4
     6aa:	e3 e3       	ldi	r30, 0x33	; 51
     6ac:	f4 e0       	ldi	r31, 0x04	; 4
     6ae:	80 81       	ld	r24, Z
     6b0:	87 7f       	andi	r24, 0xF7	; 247
     6b2:	80 83       	st	Z, r24
     6b4:	2a 98       	cbi	0x05, 2	; 5
     6b6:	22 9a       	sbi	0x04, 2	; 4
     6b8:	37 c0       	rjmp	.+110    	; 0x728 <USART_init>

000006ba <system_init>:
     6ba:	da df       	rcall	.-76     	; 0x670 <mcu_init>
     6bc:	09 98       	cbi	0x01, 1	; 1
     6be:	01 9a       	sbi	0x00, 1	; 0
     6c0:	0a 98       	cbi	0x01, 2	; 1
     6c2:	02 9a       	sbi	0x00, 2	; 0
     6c4:	0b 98       	cbi	0x01, 3	; 1
     6c6:	03 9a       	sbi	0x00, 3	; 0
     6c8:	2c 98       	cbi	0x05, 4	; 5
     6ca:	24 9a       	sbi	0x04, 4	; 4
     6cc:	25 98       	cbi	0x04, 5	; 4
     6ce:	e5 e3       	ldi	r30, 0x35	; 53
     6d0:	f4 e0       	ldi	r31, 0x04	; 4
     6d2:	80 81       	ld	r24, Z
     6d4:	87 7f       	andi	r24, 0xF7	; 247
     6d6:	80 83       	st	Z, r24
     6d8:	48 98       	cbi	0x09, 0	; 9
     6da:	40 9a       	sbi	0x08, 0	; 8
     6dc:	bf df       	rcall	.-130    	; 0x65c <CLKCTRL_init>
     6de:	09 d0       	rcall	.+18     	; 0x6f2 <Timer_init>
     6e0:	e3 df       	rcall	.-58     	; 0x6a8 <USART_initialization>
     6e2:	15 d0       	rcall	.+42     	; 0x70e <TIMER_0_init>
     6e4:	c2 df       	rcall	.-124    	; 0x66a <CPUINT_init>
     6e6:	11 d0       	rcall	.+34     	; 0x70a <SLPCTRL_init>
     6e8:	b7 cf       	rjmp	.-146    	; 0x658 <BOD_init>

000006ea <protected_write_io>:
#if defined(__GNUC__)
  
#ifdef RAMPZ
	out     _SFR_IO_ADDR(RAMPZ), r1         // Clear bits 23:16 of Z
#endif
	movw    r30, r24                // Load addr into Z
     6ea:	fc 01       	movw	r30, r24
	out     CCP, r22                // Start CCP handshake
     6ec:	64 bf       	out	0x34, r22	; 52
	st      Z, r20                  // Write value to I/O register
     6ee:	40 83       	st	Z, r20
	ret                             // Return to caller
     6f0:	08 95       	ret

000006f2 <Timer_init>:
     6f2:	80 91 41 01 	lds	r24, 0x0141	; 0x800141 <gain_setting_int_cap+0x7f6517>
     6f6:	81 11       	cpse	r24, r1
     6f8:	fc cf       	rjmp	.-8      	; 0x6f2 <Timer_init>
     6fa:	81 e8       	ldi	r24, 0x81	; 129
     6fc:	80 93 40 01 	sts	0x0140, r24	; 0x800140 <gain_setting_int_cap+0x7f6516>
     700:	82 e0       	ldi	r24, 0x02	; 2
     702:	80 93 42 01 	sts	0x0142, r24	; 0x800142 <gain_setting_int_cap+0x7f6518>
     706:	80 e0       	ldi	r24, 0x00	; 0
     708:	08 95       	ret

0000070a <SLPCTRL_init>:
     70a:	80 e0       	ldi	r24, 0x00	; 0
     70c:	08 95       	ret

0000070e <TIMER_0_init>:
     70e:	e0 e0       	ldi	r30, 0x00	; 0
     710:	fa e0       	ldi	r31, 0x0A	; 10
     712:	81 e0       	ldi	r24, 0x01	; 1
     714:	86 87       	std	Z+14, r24	; 0x0e
     716:	82 87       	std	Z+10, r24	; 0x0a
     718:	8a ef       	ldi	r24, 0xFA	; 250
     71a:	90 e0       	ldi	r25, 0x00	; 0
     71c:	86 a3       	std	Z+38, r24	; 0x26
     71e:	97 a3       	std	Z+39, r25	; 0x27
     720:	87 e0       	ldi	r24, 0x07	; 7
     722:	80 83       	st	Z, r24
     724:	80 e0       	ldi	r24, 0x00	; 0
     726:	08 95       	ret

00000728 <USART_init>:
     728:	e0 e0       	ldi	r30, 0x00	; 0
     72a:	f8 e0       	ldi	r31, 0x08	; 8
     72c:	83 e2       	ldi	r24, 0x23	; 35
     72e:	98 e0       	ldi	r25, 0x08	; 8
     730:	80 87       	std	Z+8, r24	; 0x08
     732:	91 87       	std	Z+9, r25	; 0x09
     734:	80 ec       	ldi	r24, 0xC0	; 192
     736:	86 83       	std	Z+6, r24	; 0x06
     738:	80 e0       	ldi	r24, 0x00	; 0
     73a:	08 95       	ret

0000073c <USART_is_tx_ready>:
     73c:	80 91 04 08 	lds	r24, 0x0804	; 0x800804 <gain_setting_int_cap+0x7f6bda>
     740:	85 fb       	bst	r24, 5
     742:	88 27       	eor	r24, r24
     744:	80 f9       	bld	r24, 0
     746:	08 95       	ret

00000748 <USART_is_tx_busy>:
     748:	80 91 04 08 	lds	r24, 0x0804	; 0x800804 <gain_setting_int_cap+0x7f6bda>
     74c:	86 fb       	bst	r24, 6
     74e:	88 27       	eor	r24, r24
     750:	80 f9       	bld	r24, 0
     752:	91 e0       	ldi	r25, 0x01	; 1
     754:	89 27       	eor	r24, r25
     756:	08 95       	ret

00000758 <USART_write>:
     758:	90 91 04 08 	lds	r25, 0x0804	; 0x800804 <gain_setting_int_cap+0x7f6bda>
     75c:	95 ff       	sbrs	r25, 5
     75e:	fc cf       	rjmp	.-8      	; 0x758 <USART_write>
     760:	80 93 02 08 	sts	0x0802, r24	; 0x800802 <gain_setting_int_cap+0x7f6bd8>
     764:	08 95       	ret

00000766 <triac_driver_tick>:
     766:	cf 93       	push	r28
     768:	80 91 87 3e 	lds	r24, 0x3E87	; 0x803e87 <driver_started>
     76c:	88 23       	and	r24, r24
     76e:	09 f4       	brne	.+2      	; 0x772 <triac_driver_tick+0xc>
     770:	f4 c0       	rjmp	.+488    	; 0x95a <triac_driver_tick+0x1f4>
     772:	c0 91 86 3e 	lds	r28, 0x3E86	; 0x803e86 <driver_config+0x5>
     776:	c1 30       	cpi	r28, 0x01	; 1
     778:	09 f0       	breq	.+2      	; 0x77c <triac_driver_tick+0x16>
     77a:	e8 c0       	rjmp	.+464    	; 0x94c <triac_driver_tick+0x1e6>
     77c:	80 91 85 3e 	lds	r24, 0x3E85	; 0x803e85 <driver_config+0x4>
     780:	8a 30       	cpi	r24, 0x0A	; 10
     782:	08 f4       	brcc	.+2      	; 0x786 <triac_driver_tick+0x20>
     784:	dd c0       	rjmp	.+442    	; 0x940 <triac_driver_tick+0x1da>
     786:	e0 91 81 3e 	lds	r30, 0x3E81	; 0x803e81 <driver_config>
     78a:	f0 91 82 3e 	lds	r31, 0x3E82	; 0x803e82 <driver_config+0x1>
     78e:	09 95       	icall
     790:	81 11       	cpse	r24, r1
     792:	06 c0       	rjmp	.+12     	; 0x7a0 <triac_driver_tick+0x3a>
     794:	80 91 80 3e 	lds	r24, 0x3E80	; 0x803e80 <flag_zero_sync.3755>
     798:	81 11       	cpse	r24, r1
     79a:	02 c0       	rjmp	.+4      	; 0x7a0 <triac_driver_tick+0x3a>
     79c:	c0 93 80 3e 	sts	0x3E80, r28	; 0x803e80 <flag_zero_sync.3755>
     7a0:	e0 91 81 3e 	lds	r30, 0x3E81	; 0x803e81 <driver_config>
     7a4:	f0 91 82 3e 	lds	r31, 0x3E82	; 0x803e82 <driver_config+0x1>
     7a8:	09 95       	icall
     7aa:	81 11       	cpse	r24, r1
     7ac:	60 c0       	rjmp	.+192    	; 0x86e <triac_driver_tick+0x108>
     7ae:	80 91 80 3e 	lds	r24, 0x3E80	; 0x803e80 <flag_zero_sync.3755>
     7b2:	88 23       	and	r24, r24
     7b4:	09 f4       	brne	.+2      	; 0x7b8 <triac_driver_tick+0x52>
     7b6:	5b c0       	rjmp	.+182    	; 0x86e <triac_driver_tick+0x108>
     7b8:	10 92 7f 3e 	sts	0x3E7F, r1	; 0x803e7f <flag_zero_high.3757>
     7bc:	80 91 7e 3e 	lds	r24, 0x3E7E	; 0x803e7e <flag_zero_low.3756>
     7c0:	81 11       	cpse	r24, r1
     7c2:	20 c0       	rjmp	.+64     	; 0x804 <triac_driver_tick+0x9e>
     7c4:	60 91 85 3e 	lds	r22, 0x3E85	; 0x803e85 <driver_config+0x4>
     7c8:	70 e0       	ldi	r23, 0x00	; 0
     7ca:	80 e0       	ldi	r24, 0x00	; 0
     7cc:	90 e0       	ldi	r25, 0x00	; 0
     7ce:	32 d9       	rcall	.-3484   	; 0xfffffa34 <__eeprom_end+0xff7efa34>
     7d0:	2c ea       	ldi	r18, 0xAC	; 172
     7d2:	3a ea       	ldi	r19, 0xAA	; 170
     7d4:	46 ea       	ldi	r20, 0xA6	; 166
     7d6:	52 e4       	ldi	r21, 0x42	; 66
     7d8:	b9 d9       	rcall	.-3214   	; 0xfffffb4c <__eeprom_end+0xff7efb4c>
     7da:	20 e0       	ldi	r18, 0x00	; 0
     7dc:	30 e0       	ldi	r19, 0x00	; 0
     7de:	44 e3       	ldi	r20, 0x34	; 52
     7e0:	53 e4       	ldi	r21, 0x43	; 67
     7e2:	85 d8       	rcall	.-3830   	; 0xfffff8ee <__eeprom_end+0xff7ef8ee>
     7e4:	f6 d8       	rcall	.-3604   	; 0xfffff9d2 <__eeprom_end+0xff7ef9d2>
     7e6:	60 93 7c 3e 	sts	0x3E7C, r22	; 0x803e7c <cnt_angle.3759>
     7ea:	70 93 7d 3e 	sts	0x3E7D, r23	; 0x803e7d <cnt_angle.3759+0x1>
     7ee:	81 e0       	ldi	r24, 0x01	; 1
     7f0:	80 93 7e 3e 	sts	0x3E7E, r24	; 0x803e7e <flag_zero_low.3756>
     7f4:	85 e0       	ldi	r24, 0x05	; 5
     7f6:	90 e0       	ldi	r25, 0x00	; 0
     7f8:	80 93 7a 3e 	sts	0x3E7A, r24	; 0x803e7a <cnt_triac.3760>
     7fc:	90 93 7b 3e 	sts	0x3E7B, r25	; 0x803e7b <cnt_triac.3760+0x1>
     800:	10 92 79 3e 	sts	0x3E79, r1	; 0x803e79 <flag_triac_off.3758>
     804:	80 91 7c 3e 	lds	r24, 0x3E7C	; 0x803e7c <cnt_angle.3759>
     808:	90 91 7d 3e 	lds	r25, 0x3E7D	; 0x803e7d <cnt_angle.3759+0x1>
     80c:	00 97       	sbiw	r24, 0x00	; 0
     80e:	29 f0       	breq	.+10     	; 0x81a <triac_driver_tick+0xb4>
     810:	01 97       	sbiw	r24, 0x01	; 1
     812:	80 93 7c 3e 	sts	0x3E7C, r24	; 0x803e7c <cnt_angle.3759>
     816:	90 93 7d 3e 	sts	0x3E7D, r25	; 0x803e7d <cnt_angle.3759+0x1>
     81a:	80 91 7c 3e 	lds	r24, 0x3E7C	; 0x803e7c <cnt_angle.3759>
     81e:	90 91 7d 3e 	lds	r25, 0x3E7D	; 0x803e7d <cnt_angle.3759+0x1>
     822:	89 2b       	or	r24, r25
     824:	21 f5       	brne	.+72     	; 0x86e <triac_driver_tick+0x108>
     826:	80 91 79 3e 	lds	r24, 0x3E79	; 0x803e79 <flag_triac_off.3758>
     82a:	81 11       	cpse	r24, r1
     82c:	20 c0       	rjmp	.+64     	; 0x86e <triac_driver_tick+0x108>
     82e:	e0 91 83 3e 	lds	r30, 0x3E83	; 0x803e83 <driver_config+0x2>
     832:	f0 91 84 3e 	lds	r31, 0x3E84	; 0x803e84 <driver_config+0x3>
     836:	81 e0       	ldi	r24, 0x01	; 1
     838:	09 95       	icall
     83a:	80 91 7a 3e 	lds	r24, 0x3E7A	; 0x803e7a <cnt_triac.3760>
     83e:	90 91 7b 3e 	lds	r25, 0x3E7B	; 0x803e7b <cnt_triac.3760+0x1>
     842:	00 97       	sbiw	r24, 0x00	; 0
     844:	29 f0       	breq	.+10     	; 0x850 <triac_driver_tick+0xea>
     846:	01 97       	sbiw	r24, 0x01	; 1
     848:	80 93 7a 3e 	sts	0x3E7A, r24	; 0x803e7a <cnt_triac.3760>
     84c:	90 93 7b 3e 	sts	0x3E7B, r25	; 0x803e7b <cnt_triac.3760+0x1>
     850:	80 91 7a 3e 	lds	r24, 0x3E7A	; 0x803e7a <cnt_triac.3760>
     854:	90 91 7b 3e 	lds	r25, 0x3E7B	; 0x803e7b <cnt_triac.3760+0x1>
     858:	89 2b       	or	r24, r25
     85a:	49 f4       	brne	.+18     	; 0x86e <triac_driver_tick+0x108>
     85c:	e0 91 83 3e 	lds	r30, 0x3E83	; 0x803e83 <driver_config+0x2>
     860:	f0 91 84 3e 	lds	r31, 0x3E84	; 0x803e84 <driver_config+0x3>
     864:	80 e0       	ldi	r24, 0x00	; 0
     866:	09 95       	icall
     868:	81 e0       	ldi	r24, 0x01	; 1
     86a:	80 93 79 3e 	sts	0x3E79, r24	; 0x803e79 <flag_triac_off.3758>
     86e:	e0 91 81 3e 	lds	r30, 0x3E81	; 0x803e81 <driver_config>
     872:	f0 91 82 3e 	lds	r31, 0x3E82	; 0x803e82 <driver_config+0x1>
     876:	09 95       	icall
     878:	88 23       	and	r24, r24
     87a:	09 f4       	brne	.+2      	; 0x87e <triac_driver_tick+0x118>
     87c:	6e c0       	rjmp	.+220    	; 0x95a <triac_driver_tick+0x1f4>
     87e:	80 91 80 3e 	lds	r24, 0x3E80	; 0x803e80 <flag_zero_sync.3755>
     882:	88 23       	and	r24, r24
     884:	09 f4       	brne	.+2      	; 0x888 <triac_driver_tick+0x122>
     886:	69 c0       	rjmp	.+210    	; 0x95a <triac_driver_tick+0x1f4>
     888:	10 92 7e 3e 	sts	0x3E7E, r1	; 0x803e7e <flag_zero_low.3756>
     88c:	80 91 7f 3e 	lds	r24, 0x3E7F	; 0x803e7f <flag_zero_high.3757>
     890:	81 11       	cpse	r24, r1
     892:	20 c0       	rjmp	.+64     	; 0x8d4 <triac_driver_tick+0x16e>
     894:	60 91 85 3e 	lds	r22, 0x3E85	; 0x803e85 <driver_config+0x4>
     898:	70 e0       	ldi	r23, 0x00	; 0
     89a:	80 e0       	ldi	r24, 0x00	; 0
     89c:	90 e0       	ldi	r25, 0x00	; 0
     89e:	ca d8       	rcall	.-3692   	; 0xfffffa34 <__eeprom_end+0xff7efa34>
     8a0:	2c ea       	ldi	r18, 0xAC	; 172
     8a2:	3a ea       	ldi	r19, 0xAA	; 170
     8a4:	46 ea       	ldi	r20, 0xA6	; 166
     8a6:	52 e4       	ldi	r21, 0x42	; 66
     8a8:	51 d9       	rcall	.-3422   	; 0xfffffb4c <__eeprom_end+0xff7efb4c>
     8aa:	20 e0       	ldi	r18, 0x00	; 0
     8ac:	30 e0       	ldi	r19, 0x00	; 0
     8ae:	44 e3       	ldi	r20, 0x34	; 52
     8b0:	53 e4       	ldi	r21, 0x43	; 67
     8b2:	1d d8       	rcall	.-4038   	; 0xfffff8ee <__eeprom_end+0xff7ef8ee>
     8b4:	8e d8       	rcall	.-3812   	; 0xfffff9d2 <__eeprom_end+0xff7ef9d2>
     8b6:	60 93 7c 3e 	sts	0x3E7C, r22	; 0x803e7c <cnt_angle.3759>
     8ba:	70 93 7d 3e 	sts	0x3E7D, r23	; 0x803e7d <cnt_angle.3759+0x1>
     8be:	81 e0       	ldi	r24, 0x01	; 1
     8c0:	80 93 7f 3e 	sts	0x3E7F, r24	; 0x803e7f <flag_zero_high.3757>
     8c4:	85 e0       	ldi	r24, 0x05	; 5
     8c6:	90 e0       	ldi	r25, 0x00	; 0
     8c8:	80 93 7a 3e 	sts	0x3E7A, r24	; 0x803e7a <cnt_triac.3760>
     8cc:	90 93 7b 3e 	sts	0x3E7B, r25	; 0x803e7b <cnt_triac.3760+0x1>
     8d0:	10 92 79 3e 	sts	0x3E79, r1	; 0x803e79 <flag_triac_off.3758>
     8d4:	80 91 7c 3e 	lds	r24, 0x3E7C	; 0x803e7c <cnt_angle.3759>
     8d8:	90 91 7d 3e 	lds	r25, 0x3E7D	; 0x803e7d <cnt_angle.3759+0x1>
     8dc:	00 97       	sbiw	r24, 0x00	; 0
     8de:	29 f0       	breq	.+10     	; 0x8ea <triac_driver_tick+0x184>
     8e0:	01 97       	sbiw	r24, 0x01	; 1
     8e2:	80 93 7c 3e 	sts	0x3E7C, r24	; 0x803e7c <cnt_angle.3759>
     8e6:	90 93 7d 3e 	sts	0x3E7D, r25	; 0x803e7d <cnt_angle.3759+0x1>
     8ea:	80 91 7c 3e 	lds	r24, 0x3E7C	; 0x803e7c <cnt_angle.3759>
     8ee:	90 91 7d 3e 	lds	r25, 0x3E7D	; 0x803e7d <cnt_angle.3759+0x1>
     8f2:	89 2b       	or	r24, r25
     8f4:	91 f5       	brne	.+100    	; 0x95a <triac_driver_tick+0x1f4>
     8f6:	80 91 79 3e 	lds	r24, 0x3E79	; 0x803e79 <flag_triac_off.3758>
     8fa:	81 11       	cpse	r24, r1
     8fc:	2e c0       	rjmp	.+92     	; 0x95a <triac_driver_tick+0x1f4>
     8fe:	e0 91 83 3e 	lds	r30, 0x3E83	; 0x803e83 <driver_config+0x2>
     902:	f0 91 84 3e 	lds	r31, 0x3E84	; 0x803e84 <driver_config+0x3>
     906:	81 e0       	ldi	r24, 0x01	; 1
     908:	09 95       	icall
     90a:	80 91 7a 3e 	lds	r24, 0x3E7A	; 0x803e7a <cnt_triac.3760>
     90e:	90 91 7b 3e 	lds	r25, 0x3E7B	; 0x803e7b <cnt_triac.3760+0x1>
     912:	00 97       	sbiw	r24, 0x00	; 0
     914:	29 f0       	breq	.+10     	; 0x920 <triac_driver_tick+0x1ba>
     916:	01 97       	sbiw	r24, 0x01	; 1
     918:	80 93 7a 3e 	sts	0x3E7A, r24	; 0x803e7a <cnt_triac.3760>
     91c:	90 93 7b 3e 	sts	0x3E7B, r25	; 0x803e7b <cnt_triac.3760+0x1>
     920:	80 91 7a 3e 	lds	r24, 0x3E7A	; 0x803e7a <cnt_triac.3760>
     924:	90 91 7b 3e 	lds	r25, 0x3E7B	; 0x803e7b <cnt_triac.3760+0x1>
     928:	89 2b       	or	r24, r25
     92a:	b9 f4       	brne	.+46     	; 0x95a <triac_driver_tick+0x1f4>
     92c:	e0 91 83 3e 	lds	r30, 0x3E83	; 0x803e83 <driver_config+0x2>
     930:	f0 91 84 3e 	lds	r31, 0x3E84	; 0x803e84 <driver_config+0x3>
     934:	80 e0       	ldi	r24, 0x00	; 0
     936:	09 95       	icall
     938:	81 e0       	ldi	r24, 0x01	; 1
     93a:	80 93 79 3e 	sts	0x3E79, r24	; 0x803e79 <flag_triac_off.3758>
     93e:	0d c0       	rjmp	.+26     	; 0x95a <triac_driver_tick+0x1f4>
     940:	e0 91 83 3e 	lds	r30, 0x3E83	; 0x803e83 <driver_config+0x2>
     944:	f0 91 84 3e 	lds	r31, 0x3E84	; 0x803e84 <driver_config+0x3>
     948:	81 e0       	ldi	r24, 0x01	; 1
     94a:	05 c0       	rjmp	.+10     	; 0x956 <triac_driver_tick+0x1f0>
     94c:	e0 91 83 3e 	lds	r30, 0x3E83	; 0x803e83 <driver_config+0x2>
     950:	f0 91 84 3e 	lds	r31, 0x3E84	; 0x803e84 <driver_config+0x3>
     954:	80 e0       	ldi	r24, 0x00	; 0
     956:	cf 91       	pop	r28
     958:	09 94       	ijmp
     95a:	cf 91       	pop	r28
     95c:	08 95       	ret

0000095e <triac_driver_init>:
     95e:	cf 93       	push	r28
     960:	df 93       	push	r29
     962:	cd b7       	in	r28, 0x3d	; 61
     964:	de b7       	in	r29, 0x3e	; 62
     966:	26 97       	sbiw	r28, 0x06	; 6
     968:	cd bf       	out	0x3d, r28	; 61
     96a:	de bf       	out	0x3e, r29	; 62
     96c:	49 83       	std	Y+1, r20	; 0x01
     96e:	5a 83       	std	Y+2, r21	; 0x02
     970:	6b 83       	std	Y+3, r22	; 0x03
     972:	7c 83       	std	Y+4, r23	; 0x04
     974:	8d 83       	std	Y+5, r24	; 0x05
     976:	9e 83       	std	Y+6, r25	; 0x06
     978:	86 e0       	ldi	r24, 0x06	; 6
     97a:	fe 01       	movw	r30, r28
     97c:	31 96       	adiw	r30, 0x01	; 1
     97e:	a1 e8       	ldi	r26, 0x81	; 129
     980:	be e3       	ldi	r27, 0x3E	; 62
     982:	01 90       	ld	r0, Z+
     984:	0d 92       	st	X+, r0
     986:	8a 95       	dec	r24
     988:	e1 f7       	brne	.-8      	; 0x982 <triac_driver_init+0x24>
     98a:	81 e0       	ldi	r24, 0x01	; 1
     98c:	80 93 87 3e 	sts	0x3E87, r24	; 0x803e87 <driver_started>
     990:	26 96       	adiw	r28, 0x06	; 6
     992:	cd bf       	out	0x3d, r28	; 61
     994:	de bf       	out	0x3e, r29	; 62
     996:	df 91       	pop	r29
     998:	cf 91       	pop	r28
     99a:	08 95       	ret

0000099c <triac_set_angle>:
     99c:	87 39       	cpi	r24, 0x97	; 151
     99e:	08 f0       	brcs	.+2      	; 0x9a2 <triac_set_angle+0x6>
     9a0:	86 e9       	ldi	r24, 0x96	; 150
     9a2:	80 93 85 3e 	sts	0x3E85, r24	; 0x803e85 <driver_config+0x4>
     9a6:	08 95       	ret

000009a8 <triac_set_output_state>:
     9a8:	80 93 86 3e 	sts	0x3E86, r24	; 0x803e86 <driver_config+0x5>
     9ac:	08 95       	ret

000009ae <triac_get_output_state>:
     9ae:	80 91 86 3e 	lds	r24, 0x3E86	; 0x803e86 <driver_config+0x5>
     9b2:	08 95       	ret

000009b4 <check_for_aks_block>:
     9b4:	cf 92       	push	r12
     9b6:	df 92       	push	r13
     9b8:	ff 92       	push	r15
     9ba:	0f 93       	push	r16
     9bc:	1f 93       	push	r17
     9be:	cf 93       	push	r28
     9c0:	df 93       	push	r29
     9c2:	ec 01       	movw	r28, r24
     9c4:	ae 81       	ldd	r26, Y+6	; 0x06
     9c6:	bf 81       	ldd	r27, Y+7	; 0x07
     9c8:	eb 01       	movw	r28, r22
     9ca:	cc 0f       	add	r28, r28
     9cc:	dd 1f       	adc	r29, r29
     9ce:	c6 0f       	add	r28, r22
     9d0:	d7 1f       	adc	r29, r23
     9d2:	ca 0f       	add	r28, r26
     9d4:	db 1f       	adc	r29, r27
     9d6:	fa 80       	ldd	r15, Y+2	; 0x02
     9d8:	fc 01       	movw	r30, r24
     9da:	44 81       	ldd	r20, Z+4	; 0x04
     9dc:	55 81       	ldd	r21, Z+5	; 0x05
     9de:	e6 e0       	ldi	r30, 0x06	; 6
     9e0:	e6 9f       	mul	r30, r22
     9e2:	90 01       	movw	r18, r0
     9e4:	e7 9f       	mul	r30, r23
     9e6:	30 0d       	add	r19, r0
     9e8:	11 24       	eor	r1, r1
     9ea:	8a 01       	movw	r16, r20
     9ec:	02 0f       	add	r16, r18
     9ee:	13 1f       	adc	r17, r19
     9f0:	f8 01       	movw	r30, r16
     9f2:	22 81       	ldd	r18, Z+2	; 0x02
     9f4:	33 81       	ldd	r19, Z+3	; 0x03
     9f6:	f9 01       	movw	r30, r18
     9f8:	21 81       	ldd	r18, Z+1	; 0x01
     9fa:	32 81       	ldd	r19, Z+2	; 0x02
     9fc:	f8 01       	movw	r30, r16
     9fe:	04 81       	ldd	r16, Z+4	; 0x04
     a00:	15 81       	ldd	r17, Z+5	; 0x05
     a02:	20 1b       	sub	r18, r16
     a04:	31 0b       	sbc	r19, r17
     a06:	e8 81       	ld	r30, Y
     a08:	2e 1b       	sub	r18, r30
     a0a:	31 09       	sbc	r19, r1
     a0c:	ec 01       	movw	r28, r24
     a0e:	ea 81       	ldd	r30, Y+2	; 0x02
     a10:	fb 81       	ldd	r31, Y+3	; 0x03
     a12:	00 81       	ld	r16, Z
     a14:	11 81       	ldd	r17, Z+1	; 0x01
     a16:	fa 01       	movw	r30, r20
     a18:	40 e0       	ldi	r20, 0x00	; 0
     a1a:	50 e0       	ldi	r21, 0x00	; 0
     a1c:	40 17       	cp	r20, r16
     a1e:	51 07       	cpc	r21, r17
     a20:	39 f1       	breq	.+78     	; 0xa70 <check_for_aks_block+0xbc>
     a22:	46 17       	cp	r20, r22
     a24:	57 07       	cpc	r21, r23
     a26:	f9 f0       	breq	.+62     	; 0xa66 <check_for_aks_block+0xb2>
     a28:	12 96       	adiw	r26, 0x02	; 2
     a2a:	8c 91       	ld	r24, X
     a2c:	12 97       	sbiw	r26, 0x02	; 2
     a2e:	f8 12       	cpse	r15, r24
     a30:	1a c0       	rjmp	.+52     	; 0xa66 <check_for_aks_block+0xb2>
     a32:	80 81       	ld	r24, Z
     a34:	85 58       	subi	r24, 0x85	; 133
     a36:	82 30       	cpi	r24, 0x02	; 2
     a38:	e8 f0       	brcs	.+58     	; 0xa74 <check_for_aks_block+0xc0>
     a3a:	c4 80       	ldd	r12, Z+4	; 0x04
     a3c:	d5 80       	ldd	r13, Z+5	; 0x05
     a3e:	82 81       	ldd	r24, Z+2	; 0x02
     a40:	93 81       	ldd	r25, Z+3	; 0x03
     a42:	ec 01       	movw	r28, r24
     a44:	89 81       	ldd	r24, Y+1	; 0x01
     a46:	9a 81       	ldd	r25, Y+2	; 0x02
     a48:	c8 16       	cp	r12, r24
     a4a:	d9 06       	cpc	r13, r25
     a4c:	60 f4       	brcc	.+24     	; 0xa66 <check_for_aks_block+0xb2>
     a4e:	8c 19       	sub	r24, r12
     a50:	9d 09       	sbc	r25, r13
     a52:	cc 91       	ld	r28, X
     a54:	d0 e0       	ldi	r29, 0x00	; 0
     a56:	c8 17       	cp	r28, r24
     a58:	d9 07       	cpc	r29, r25
     a5a:	28 f4       	brcc	.+10     	; 0xa66 <check_for_aks_block+0xb2>
     a5c:	8c 1b       	sub	r24, r28
     a5e:	9d 0b       	sbc	r25, r29
     a60:	28 17       	cp	r18, r24
     a62:	39 07       	cpc	r19, r25
     a64:	38 f0       	brcs	.+14     	; 0xa74 <check_for_aks_block+0xc0>
     a66:	4f 5f       	subi	r20, 0xFF	; 255
     a68:	5f 4f       	sbci	r21, 0xFF	; 255
     a6a:	13 96       	adiw	r26, 0x03	; 3
     a6c:	36 96       	adiw	r30, 0x06	; 6
     a6e:	d6 cf       	rjmp	.-84     	; 0xa1c <check_for_aks_block+0x68>
     a70:	80 e0       	ldi	r24, 0x00	; 0
     a72:	01 c0       	rjmp	.+2      	; 0xa76 <check_for_aks_block+0xc2>
     a74:	81 e0       	ldi	r24, 0x01	; 1
     a76:	df 91       	pop	r29
     a78:	cf 91       	pop	r28
     a7a:	1f 91       	pop	r17
     a7c:	0f 91       	pop	r16
     a7e:	ff 90       	pop	r15
     a80:	df 90       	pop	r13
     a82:	cf 90       	pop	r12
     a84:	08 95       	ret

00000a86 <qtm_update_qtlib_timer>:
     a86:	20 91 88 3e 	lds	r18, 0x3E88	; 0x803e88 <qtm_local_ms_timecount>
     a8a:	30 91 89 3e 	lds	r19, 0x3E89	; 0x803e89 <qtm_local_ms_timecount+0x1>
     a8e:	82 0f       	add	r24, r18
     a90:	93 1f       	adc	r25, r19
     a92:	80 93 88 3e 	sts	0x3E88, r24	; 0x803e88 <qtm_local_ms_timecount>
     a96:	90 93 89 3e 	sts	0x3E89, r25	; 0x803e89 <qtm_local_ms_timecount+0x1>
     a9a:	08 95       	ret

00000a9c <qtm_init_sensor_key>:
     a9c:	00 97       	sbiw	r24, 0x00	; 0
     a9e:	d9 f0       	breq	.+54     	; 0xad6 <qtm_init_sensor_key+0x3a>
     aa0:	41 15       	cp	r20, r1
     aa2:	51 05       	cpc	r21, r1
     aa4:	c1 f0       	breq	.+48     	; 0xad6 <qtm_init_sensor_key+0x3a>
     aa6:	26 e0       	ldi	r18, 0x06	; 6
     aa8:	62 9f       	mul	r22, r18
     aaa:	b0 01       	movw	r22, r0
     aac:	11 24       	eor	r1, r1
     aae:	dc 01       	movw	r26, r24
     ab0:	14 96       	adiw	r26, 0x04	; 4
     ab2:	ed 91       	ld	r30, X+
     ab4:	fc 91       	ld	r31, X
     ab6:	15 97       	sbiw	r26, 0x05	; 5
     ab8:	e6 0f       	add	r30, r22
     aba:	f7 1f       	adc	r31, r23
     abc:	21 e0       	ldi	r18, 0x01	; 1
     abe:	20 83       	st	Z, r18
     ac0:	14 96       	adiw	r26, 0x04	; 4
     ac2:	8d 91       	ld	r24, X+
     ac4:	9c 91       	ld	r25, X
     ac6:	15 97       	sbiw	r26, 0x05	; 5
     ac8:	fc 01       	movw	r30, r24
     aca:	e6 0f       	add	r30, r22
     acc:	f7 1f       	adc	r31, r23
     ace:	42 83       	std	Z+2, r20	; 0x02
     ad0:	53 83       	std	Z+3, r21	; 0x03
     ad2:	80 e0       	ldi	r24, 0x00	; 0
     ad4:	08 95       	ret
     ad6:	8b e0       	ldi	r24, 0x0B	; 11
     ad8:	08 95       	ret

00000ada <qtm_key_sensors_process>:
     ada:	2f 92       	push	r2
     adc:	3f 92       	push	r3
     ade:	4f 92       	push	r4
     ae0:	5f 92       	push	r5
     ae2:	6f 92       	push	r6
     ae4:	7f 92       	push	r7
     ae6:	8f 92       	push	r8
     ae8:	9f 92       	push	r9
     aea:	af 92       	push	r10
     aec:	bf 92       	push	r11
     aee:	cf 92       	push	r12
     af0:	df 92       	push	r13
     af2:	ef 92       	push	r14
     af4:	ff 92       	push	r15
     af6:	0f 93       	push	r16
     af8:	1f 93       	push	r17
     afa:	cf 93       	push	r28
     afc:	df 93       	push	r29
     afe:	00 97       	sbiw	r24, 0x00	; 0
     b00:	09 f4       	brne	.+2      	; 0xb04 <qtm_key_sensors_process+0x2a>
     b02:	7c c3       	rjmp	.+1784   	; 0x11fc <qtm_key_sensors_process+0x722>
     b04:	ec 01       	movw	r28, r24
     b06:	a1 2c       	mov	r10, r1
     b08:	b1 2c       	mov	r11, r1
     b0a:	81 2c       	mov	r8, r1
     b0c:	91 2c       	mov	r9, r1
     b0e:	21 2c       	mov	r2, r1
     b10:	d1 2c       	mov	r13, r1
     b12:	55 24       	eor	r5, r5
     b14:	53 94       	inc	r5
     b16:	33 e0       	ldi	r19, 0x03	; 3
     b18:	c3 2e       	mov	r12, r19
     b1a:	45 e8       	ldi	r20, 0x85	; 133
     b1c:	64 2e       	mov	r6, r20
     b1e:	56 e8       	ldi	r21, 0x86	; 134
     b20:	75 2e       	mov	r7, r21
     b22:	62 e0       	ldi	r22, 0x02	; 2
     b24:	36 2e       	mov	r3, r22
     b26:	78 e0       	ldi	r23, 0x08	; 8
     b28:	47 2e       	mov	r4, r23
     b2a:	ea 81       	ldd	r30, Y+2	; 0x02
     b2c:	fb 81       	ldd	r31, Y+3	; 0x03
     b2e:	80 81       	ld	r24, Z
     b30:	91 81       	ldd	r25, Z+1	; 0x01
     b32:	88 16       	cp	r8, r24
     b34:	99 06       	cpc	r9, r25
     b36:	08 f0       	brcs	.+2      	; 0xb3a <qtm_key_sensors_process+0x60>
     b38:	a4 c1       	rjmp	.+840    	; 0xe82 <qtm_key_sensors_process+0x3a8>
     b3a:	75 01       	movw	r14, r10
     b3c:	ee 0c       	add	r14, r14
     b3e:	ff 1c       	adc	r15, r15
     b40:	ec 81       	ldd	r30, Y+4	; 0x04
     b42:	fd 81       	ldd	r31, Y+5	; 0x05
     b44:	ee 0d       	add	r30, r14
     b46:	ff 1d       	adc	r31, r15
     b48:	a2 81       	ldd	r26, Z+2	; 0x02
     b4a:	b3 81       	ldd	r27, Z+3	; 0x03
     b4c:	9c 91       	ld	r25, X
     b4e:	9e 71       	andi	r25, 0x1E	; 30
     b50:	09 f0       	breq	.+2      	; 0xb54 <qtm_key_sensors_process+0x7a>
     b52:	50 82       	st	Z, r5
     b54:	0c 81       	ldd	r16, Y+4	; 0x04
     b56:	1d 81       	ldd	r17, Y+5	; 0x05
     b58:	0e 0d       	add	r16, r14
     b5a:	1f 1d       	adc	r17, r15
     b5c:	d8 01       	movw	r26, r16
     b5e:	8c 91       	ld	r24, X
     b60:	84 30       	cpi	r24, 0x04	; 4
     b62:	09 f4       	brne	.+2      	; 0xb66 <qtm_key_sensors_process+0x8c>
     b64:	9d c0       	rjmp	.+314    	; 0xca0 <qtm_key_sensors_process+0x1c6>
     b66:	38 f4       	brcc	.+14     	; 0xb76 <qtm_key_sensors_process+0x9c>
     b68:	82 30       	cpi	r24, 0x02	; 2
     b6a:	d1 f0       	breq	.+52     	; 0xba0 <qtm_key_sensors_process+0xc6>
     b6c:	08 f0       	brcs	.+2      	; 0xb70 <qtm_key_sensors_process+0x96>
     b6e:	45 c0       	rjmp	.+138    	; 0xbfa <qtm_key_sensors_process+0x120>
     b70:	81 30       	cpi	r24, 0x01	; 1
     b72:	59 f0       	breq	.+22     	; 0xb8a <qtm_key_sensors_process+0xb0>
     b74:	7f c1       	rjmp	.+766    	; 0xe74 <qtm_key_sensors_process+0x39a>
     b76:	85 38       	cpi	r24, 0x85	; 133
     b78:	09 f4       	brne	.+2      	; 0xb7c <qtm_key_sensors_process+0xa2>
     b7a:	bd c0       	rjmp	.+378    	; 0xcf6 <qtm_key_sensors_process+0x21c>
     b7c:	86 38       	cpi	r24, 0x86	; 134
     b7e:	09 f4       	brne	.+2      	; 0xb82 <qtm_key_sensors_process+0xa8>
     b80:	f3 c0       	rjmp	.+486    	; 0xd68 <qtm_key_sensors_process+0x28e>
     b82:	87 30       	cpi	r24, 0x07	; 7
     b84:	09 f0       	breq	.+2      	; 0xb88 <qtm_key_sensors_process+0xae>
     b86:	76 c1       	rjmp	.+748    	; 0xe74 <qtm_key_sensors_process+0x39a>
     b88:	34 c1       	rjmp	.+616    	; 0xdf2 <qtm_key_sensors_process+0x318>
     b8a:	91 11       	cpse	r25, r1
     b8c:	65 c1       	rjmp	.+714    	; 0xe58 <qtm_key_sensors_process+0x37e>
     b8e:	f8 01       	movw	r30, r16
     b90:	30 82       	st	Z, r3
     b92:	8c 81       	ldd	r24, Y+4	; 0x04
     b94:	9d 81       	ldd	r25, Y+5	; 0x05
     b96:	fc 01       	movw	r30, r24
     b98:	ee 0d       	add	r30, r14
     b9a:	ff 1d       	adc	r31, r15
     b9c:	41 82       	std	Z+1, r4	; 0x01
     b9e:	5c c1       	rjmp	.+696    	; 0xe58 <qtm_key_sensors_process+0x37e>
     ba0:	d8 01       	movw	r26, r16
     ba2:	11 96       	adiw	r26, 0x01	; 1
     ba4:	2c 91       	ld	r18, X
     ba6:	11 97       	sbiw	r26, 0x01	; 1
     ba8:	22 23       	and	r18, r18
     baa:	29 f1       	breq	.+74     	; 0xbf6 <qtm_key_sensors_process+0x11c>
     bac:	12 96       	adiw	r26, 0x02	; 2
     bae:	ed 91       	ld	r30, X+
     bb0:	fc 91       	ld	r31, X
     bb2:	13 97       	sbiw	r26, 0x03	; 3
     bb4:	25 30       	cpi	r18, 0x05	; 5
     bb6:	18 f0       	brcs	.+6      	; 0xbbe <qtm_key_sensors_process+0xe4>
     bb8:	81 81       	ldd	r24, Z+1	; 0x01
     bba:	92 81       	ldd	r25, Z+2	; 0x02
     bbc:	0e c0       	rjmp	.+28     	; 0xbda <qtm_key_sensors_process+0x100>
     bbe:	d8 01       	movw	r26, r16
     bc0:	14 96       	adiw	r26, 0x04	; 4
     bc2:	8d 91       	ld	r24, X+
     bc4:	9c 91       	ld	r25, X
     bc6:	15 97       	sbiw	r26, 0x05	; 5
     bc8:	41 81       	ldd	r20, Z+1	; 0x01
     bca:	52 81       	ldd	r21, Z+2	; 0x02
     bcc:	84 17       	cp	r24, r20
     bce:	95 07       	cpc	r25, r21
     bd0:	69 f0       	breq	.+26     	; 0xbec <qtm_key_sensors_process+0x112>
     bd2:	48 17       	cp	r20, r24
     bd4:	59 07       	cpc	r21, r25
     bd6:	30 f4       	brcc	.+12     	; 0xbe4 <qtm_key_sensors_process+0x10a>
     bd8:	01 97       	sbiw	r24, 0x01	; 1
     bda:	14 96       	adiw	r26, 0x04	; 4
     bdc:	8d 93       	st	X+, r24
     bde:	9c 93       	st	X, r25
     be0:	15 97       	sbiw	r26, 0x05	; 5
     be2:	04 c0       	rjmp	.+8      	; 0xbec <qtm_key_sensors_process+0x112>
     be4:	01 96       	adiw	r24, 0x01	; 1
     be6:	f8 01       	movw	r30, r16
     be8:	84 83       	std	Z+4, r24	; 0x04
     bea:	95 83       	std	Z+5, r25	; 0x05
     bec:	21 50       	subi	r18, 0x01	; 1
     bee:	d8 01       	movw	r26, r16
     bf0:	11 96       	adiw	r26, 0x01	; 1
     bf2:	2c 93       	st	X, r18
     bf4:	31 c1       	rjmp	.+610    	; 0xe58 <qtm_key_sensors_process+0x37e>
     bf6:	f8 01       	movw	r30, r16
     bf8:	2b c1       	rjmp	.+598    	; 0xe50 <qtm_key_sensors_process+0x376>
     bfa:	d8 01       	movw	r26, r16
     bfc:	14 96       	adiw	r26, 0x04	; 4
     bfe:	2d 91       	ld	r18, X+
     c00:	3c 91       	ld	r19, X
     c02:	15 97       	sbiw	r26, 0x05	; 5
     c04:	12 96       	adiw	r26, 0x02	; 2
     c06:	ed 91       	ld	r30, X+
     c08:	fc 91       	ld	r31, X
     c0a:	13 97       	sbiw	r26, 0x03	; 3
     c0c:	41 81       	ldd	r20, Z+1	; 0x01
     c0e:	52 81       	ldd	r21, Z+2	; 0x02
     c10:	24 17       	cp	r18, r20
     c12:	35 07       	cpc	r19, r21
     c14:	09 f4       	brne	.+2      	; 0xc18 <qtm_key_sensors_process+0x13e>
     c16:	2e c1       	rjmp	.+604    	; 0xe74 <qtm_key_sensors_process+0x39a>
     c18:	8e 81       	ldd	r24, Y+6	; 0x06
     c1a:	9f 81       	ldd	r25, Y+7	; 0x07
     c1c:	42 17       	cp	r20, r18
     c1e:	53 07       	cpc	r21, r19
     c20:	f8 f4       	brcc	.+62     	; 0xc60 <qtm_key_sensors_process+0x186>
     c22:	ea 81       	ldd	r30, Y+2	; 0x02
     c24:	fb 81       	ldd	r31, Y+3	; 0x03
     c26:	24 1b       	sub	r18, r20
     c28:	35 0b       	sbc	r19, r21
     c2a:	dc 01       	movw	r26, r24
     c2c:	aa 0d       	add	r26, r10
     c2e:	bb 1d       	adc	r27, r11
     c30:	8c 91       	ld	r24, X
     c32:	90 e0       	ldi	r25, 0x00	; 0
     c34:	05 80       	ldd	r0, Z+5	; 0x05
     c36:	02 c0       	rjmp	.+4      	; 0xc3c <qtm_key_sensors_process+0x162>
     c38:	95 95       	asr	r25
     c3a:	87 95       	ror	r24
     c3c:	0a 94       	dec	r0
     c3e:	e2 f7       	brpl	.-8      	; 0xc38 <qtm_key_sensors_process+0x15e>
     c40:	99 27       	eor	r25, r25
     c42:	28 17       	cp	r18, r24
     c44:	39 07       	cpc	r19, r25
     c46:	08 f4       	brcc	.+2      	; 0xc4a <qtm_key_sensors_process+0x170>
     c48:	15 c1       	rjmp	.+554    	; 0xe74 <qtm_key_sensors_process+0x39a>
     c4a:	84 81       	ldd	r24, Z+4	; 0x04
     c4c:	88 23       	and	r24, r24
     c4e:	09 f4       	brne	.+2      	; 0xc52 <qtm_key_sensors_process+0x178>
     c50:	11 c1       	rjmp	.+546    	; 0xe74 <qtm_key_sensors_process+0x39a>
     c52:	87 e0       	ldi	r24, 0x07	; 7
     c54:	f8 01       	movw	r30, r16
     c56:	80 83       	st	Z, r24
     c58:	ea 81       	ldd	r30, Y+2	; 0x02
     c5a:	fb 81       	ldd	r31, Y+3	; 0x03
     c5c:	24 81       	ldd	r18, Z+4	; 0x04
     c5e:	19 c0       	rjmp	.+50     	; 0xc92 <qtm_key_sensors_process+0x1b8>
     c60:	fc 01       	movw	r30, r24
     c62:	ea 0d       	add	r30, r10
     c64:	fb 1d       	adc	r31, r11
     c66:	42 1b       	sub	r20, r18
     c68:	53 0b       	sbc	r21, r19
     c6a:	80 81       	ld	r24, Z
     c6c:	90 e0       	ldi	r25, 0x00	; 0
     c6e:	48 17       	cp	r20, r24
     c70:	59 07       	cpc	r21, r25
     c72:	08 f4       	brcc	.+2      	; 0xc76 <qtm_key_sensors_process+0x19c>
     c74:	ff c0       	rjmp	.+510    	; 0xe74 <qtm_key_sensors_process+0x39a>
     c76:	82 81       	ldd	r24, Z+2	; 0x02
     c78:	88 23       	and	r24, r24
     c7a:	29 f0       	breq	.+10     	; 0xc86 <qtm_key_sensors_process+0x1ac>
     c7c:	b4 01       	movw	r22, r8
     c7e:	ce 01       	movw	r24, r28
     c80:	99 de       	rcall	.-718    	; 0x9b4 <check_for_aks_block>
     c82:	81 11       	cpse	r24, r1
     c84:	f7 c0       	rjmp	.+494    	; 0xe74 <qtm_key_sensors_process+0x39a>
     c86:	e4 e0       	ldi	r30, 0x04	; 4
     c88:	d8 01       	movw	r26, r16
     c8a:	ec 93       	st	X, r30
     c8c:	ea 81       	ldd	r30, Y+2	; 0x02
     c8e:	fb 81       	ldd	r31, Y+3	; 0x03
     c90:	22 81       	ldd	r18, Z+2	; 0x02
     c92:	8c 81       	ldd	r24, Y+4	; 0x04
     c94:	9d 81       	ldd	r25, Y+5	; 0x05
     c96:	fc 01       	movw	r30, r24
     c98:	ee 0d       	add	r30, r14
     c9a:	ff 1d       	adc	r31, r15
     c9c:	21 83       	std	Z+1, r18	; 0x01
     c9e:	dc c0       	rjmp	.+440    	; 0xe58 <qtm_key_sensors_process+0x37e>
     ca0:	d8 01       	movw	r26, r16
     ca2:	14 96       	adiw	r26, 0x04	; 4
     ca4:	2d 91       	ld	r18, X+
     ca6:	3c 91       	ld	r19, X
     ca8:	15 97       	sbiw	r26, 0x05	; 5
     caa:	12 96       	adiw	r26, 0x02	; 2
     cac:	ed 91       	ld	r30, X+
     cae:	fc 91       	ld	r31, X
     cb0:	13 97       	sbiw	r26, 0x03	; 3
     cb2:	81 81       	ldd	r24, Z+1	; 0x01
     cb4:	92 81       	ldd	r25, Z+2	; 0x02
     cb6:	82 17       	cp	r24, r18
     cb8:	93 07       	cpc	r25, r19
     cba:	08 f4       	brcc	.+2      	; 0xcbe <qtm_key_sensors_process+0x1e4>
     cbc:	ba c0       	rjmp	.+372    	; 0xe32 <qtm_key_sensors_process+0x358>
     cbe:	ee 81       	ldd	r30, Y+6	; 0x06
     cc0:	ff 81       	ldd	r31, Y+7	; 0x07
     cc2:	ea 0d       	add	r30, r10
     cc4:	fb 1d       	adc	r31, r11
     cc6:	82 1b       	sub	r24, r18
     cc8:	93 0b       	sbc	r25, r19
     cca:	20 81       	ld	r18, Z
     ccc:	30 e0       	ldi	r19, 0x00	; 0
     cce:	28 17       	cp	r18, r24
     cd0:	39 07       	cpc	r19, r25
     cd2:	08 f0       	brcs	.+2      	; 0xcd6 <qtm_key_sensors_process+0x1fc>
     cd4:	c4 c0       	rjmp	.+392    	; 0xe5e <qtm_key_sensors_process+0x384>
     cd6:	82 81       	ldd	r24, Z+2	; 0x02
     cd8:	88 23       	and	r24, r24
     cda:	29 f0       	breq	.+10     	; 0xce6 <qtm_key_sensors_process+0x20c>
     cdc:	b4 01       	movw	r22, r8
     cde:	ce 01       	movw	r24, r28
     ce0:	69 de       	rcall	.-814    	; 0x9b4 <check_for_aks_block>
     ce2:	81 11       	cpse	r24, r1
     ce4:	c7 c0       	rjmp	.+398    	; 0xe74 <qtm_key_sensors_process+0x39a>
     ce6:	f8 01       	movw	r30, r16
     ce8:	81 81       	ldd	r24, Z+1	; 0x01
     cea:	88 23       	and	r24, r24
     cec:	09 f4       	brne	.+2      	; 0xcf0 <qtm_key_sensors_process+0x216>
     cee:	6a c0       	rjmp	.+212    	; 0xdc4 <qtm_key_sensors_process+0x2ea>
     cf0:	81 50       	subi	r24, 0x01	; 1
     cf2:	81 83       	std	Z+1, r24	; 0x01
     cf4:	b1 c0       	rjmp	.+354    	; 0xe58 <qtm_key_sensors_process+0x37e>
     cf6:	e8 81       	ld	r30, Y
     cf8:	f9 81       	ldd	r31, Y+1	; 0x01
     cfa:	aa 81       	ldd	r26, Y+2	; 0x02
     cfc:	bb 81       	ldd	r27, Y+3	; 0x03
     cfe:	18 96       	adiw	r26, 0x08	; 8
     d00:	8c 91       	ld	r24, X
     d02:	83 83       	std	Z+3, r24	; 0x03
     d04:	ec 81       	ldd	r30, Y+4	; 0x04
     d06:	fd 81       	ldd	r31, Y+5	; 0x05
     d08:	ee 0d       	add	r30, r14
     d0a:	ff 1d       	adc	r31, r15
     d0c:	44 81       	ldd	r20, Z+4	; 0x04
     d0e:	55 81       	ldd	r21, Z+5	; 0x05
     d10:	a2 81       	ldd	r26, Z+2	; 0x02
     d12:	b3 81       	ldd	r27, Z+3	; 0x03
     d14:	11 96       	adiw	r26, 0x01	; 1
     d16:	8d 91       	ld	r24, X+
     d18:	9c 91       	ld	r25, X
     d1a:	12 97       	sbiw	r26, 0x02	; 2
     d1c:	84 17       	cp	r24, r20
     d1e:	95 07       	cpc	r25, r21
     d20:	c0 f0       	brcs	.+48     	; 0xd52 <qtm_key_sensors_process+0x278>
     d22:	ae 81       	ldd	r26, Y+6	; 0x06
     d24:	bf 81       	ldd	r27, Y+7	; 0x07
     d26:	aa 0d       	add	r26, r10
     d28:	bb 1d       	adc	r27, r11
     d2a:	6c 91       	ld	r22, X
     d2c:	26 2f       	mov	r18, r22
     d2e:	30 e0       	ldi	r19, 0x00	; 0
     d30:	11 96       	adiw	r26, 0x01	; 1
     d32:	7c 91       	ld	r23, X
     d34:	7f 5f       	subi	r23, 0xFF	; 255
     d36:	02 c0       	rjmp	.+4      	; 0xd3c <qtm_key_sensors_process+0x262>
     d38:	35 95       	asr	r19
     d3a:	27 95       	ror	r18
     d3c:	7a 95       	dec	r23
     d3e:	e2 f7       	brpl	.-8      	; 0xd38 <qtm_key_sensors_process+0x25e>
     d40:	84 1b       	sub	r24, r20
     d42:	95 0b       	sbc	r25, r21
     d44:	62 1b       	sub	r22, r18
     d46:	26 2f       	mov	r18, r22
     d48:	30 e0       	ldi	r19, 0x00	; 0
     d4a:	28 17       	cp	r18, r24
     d4c:	39 07       	cpc	r19, r25
     d4e:	08 f4       	brcc	.+2      	; 0xd52 <qtm_key_sensors_process+0x278>
     d50:	8f c0       	rjmp	.+286    	; 0xe70 <qtm_key_sensors_process+0x396>
     d52:	70 82       	st	Z, r7
     d54:	ea 81       	ldd	r30, Y+2	; 0x02
     d56:	fb 81       	ldd	r31, Y+3	; 0x03
     d58:	22 81       	ldd	r18, Z+2	; 0x02
     d5a:	8c 81       	ldd	r24, Y+4	; 0x04
     d5c:	9d 81       	ldd	r25, Y+5	; 0x05
     d5e:	fc 01       	movw	r30, r24
     d60:	ee 0d       	add	r30, r14
     d62:	ff 1d       	adc	r31, r15
     d64:	21 83       	std	Z+1, r18	; 0x01
     d66:	42 c0       	rjmp	.+132    	; 0xdec <qtm_key_sensors_process+0x312>
     d68:	d8 01       	movw	r26, r16
     d6a:	14 96       	adiw	r26, 0x04	; 4
     d6c:	6d 91       	ld	r22, X+
     d6e:	7c 91       	ld	r23, X
     d70:	15 97       	sbiw	r26, 0x05	; 5
     d72:	12 96       	adiw	r26, 0x02	; 2
     d74:	ed 91       	ld	r30, X+
     d76:	fc 91       	ld	r31, X
     d78:	13 97       	sbiw	r26, 0x03	; 3
     d7a:	21 81       	ldd	r18, Z+1	; 0x01
     d7c:	32 81       	ldd	r19, Z+2	; 0x02
     d7e:	26 17       	cp	r18, r22
     d80:	37 07       	cpc	r19, r23
     d82:	58 f4       	brcc	.+22     	; 0xd9a <qtm_key_sensors_process+0x2c0>
     d84:	11 96       	adiw	r26, 0x01	; 1
     d86:	8c 91       	ld	r24, X
     d88:	11 97       	sbiw	r26, 0x01	; 1
     d8a:	81 11       	cpse	r24, r1
     d8c:	02 c0       	rjmp	.+4      	; 0xd92 <qtm_key_sensors_process+0x2b8>
     d8e:	cc 92       	st	X, r12
     d90:	6f c0       	rjmp	.+222    	; 0xe70 <qtm_key_sensors_process+0x396>
     d92:	81 50       	subi	r24, 0x01	; 1
     d94:	f8 01       	movw	r30, r16
     d96:	81 83       	std	Z+1, r24	; 0x01
     d98:	6b c0       	rjmp	.+214    	; 0xe70 <qtm_key_sensors_process+0x396>
     d9a:	ee 81       	ldd	r30, Y+6	; 0x06
     d9c:	ff 81       	ldd	r31, Y+7	; 0x07
     d9e:	ea 0d       	add	r30, r10
     da0:	fb 1d       	adc	r31, r11
     da2:	80 81       	ld	r24, Z
     da4:	48 2f       	mov	r20, r24
     da6:	50 e0       	ldi	r21, 0x00	; 0
     da8:	91 81       	ldd	r25, Z+1	; 0x01
     daa:	9f 5f       	subi	r25, 0xFF	; 255
     dac:	02 c0       	rjmp	.+4      	; 0xdb2 <qtm_key_sensors_process+0x2d8>
     dae:	55 95       	asr	r21
     db0:	47 95       	ror	r20
     db2:	9a 95       	dec	r25
     db4:	e2 f7       	brpl	.-8      	; 0xdae <qtm_key_sensors_process+0x2d4>
     db6:	26 1b       	sub	r18, r22
     db8:	37 0b       	sbc	r19, r23
     dba:	84 1b       	sub	r24, r20
     dbc:	90 e0       	ldi	r25, 0x00	; 0
     dbe:	82 17       	cp	r24, r18
     dc0:	93 07       	cpc	r25, r19
     dc2:	60 f4       	brcc	.+24     	; 0xddc <qtm_key_sensors_process+0x302>
     dc4:	d8 01       	movw	r26, r16
     dc6:	6c 92       	st	X, r6
     dc8:	ea 81       	ldd	r30, Y+2	; 0x02
     dca:	fb 81       	ldd	r31, Y+3	; 0x03
     dcc:	23 81       	ldd	r18, Z+3	; 0x03
     dce:	8c 81       	ldd	r24, Y+4	; 0x04
     dd0:	9d 81       	ldd	r25, Y+5	; 0x05
     dd2:	fc 01       	movw	r30, r24
     dd4:	ee 0d       	add	r30, r14
     dd6:	ff 1d       	adc	r31, r15
     dd8:	21 83       	std	Z+1, r18	; 0x01
     dda:	4a c0       	rjmp	.+148    	; 0xe70 <qtm_key_sensors_process+0x396>
     ddc:	f8 01       	movw	r30, r16
     dde:	81 81       	ldd	r24, Z+1	; 0x01
     de0:	81 11       	cpse	r24, r1
     de2:	02 c0       	rjmp	.+4      	; 0xde8 <qtm_key_sensors_process+0x30e>
     de4:	c0 82       	st	Z, r12
     de6:	44 c0       	rjmp	.+136    	; 0xe70 <qtm_key_sensors_process+0x396>
     de8:	81 50       	subi	r24, 0x01	; 1
     dea:	81 83       	std	Z+1, r24	; 0x01
     dec:	22 24       	eor	r2, r2
     dee:	23 94       	inc	r2
     df0:	33 c0       	rjmp	.+102    	; 0xe58 <qtm_key_sensors_process+0x37e>
     df2:	f8 01       	movw	r30, r16
     df4:	24 81       	ldd	r18, Z+4	; 0x04
     df6:	35 81       	ldd	r19, Z+5	; 0x05
     df8:	02 80       	ldd	r0, Z+2	; 0x02
     dfa:	f3 81       	ldd	r31, Z+3	; 0x03
     dfc:	e0 2d       	mov	r30, r0
     dfe:	81 81       	ldd	r24, Z+1	; 0x01
     e00:	92 81       	ldd	r25, Z+2	; 0x02
     e02:	82 17       	cp	r24, r18
     e04:	93 07       	cpc	r25, r19
     e06:	58 f5       	brcc	.+86     	; 0xe5e <qtm_key_sensors_process+0x384>
     e08:	28 1b       	sub	r18, r24
     e0a:	39 0b       	sbc	r19, r25
     e0c:	ee 81       	ldd	r30, Y+6	; 0x06
     e0e:	ff 81       	ldd	r31, Y+7	; 0x07
     e10:	ea 0d       	add	r30, r10
     e12:	fb 1d       	adc	r31, r11
     e14:	80 81       	ld	r24, Z
     e16:	90 e0       	ldi	r25, 0x00	; 0
     e18:	ea 81       	ldd	r30, Y+2	; 0x02
     e1a:	fb 81       	ldd	r31, Y+3	; 0x03
     e1c:	05 80       	ldd	r0, Z+5	; 0x05
     e1e:	02 c0       	rjmp	.+4      	; 0xe24 <qtm_key_sensors_process+0x34a>
     e20:	95 95       	asr	r25
     e22:	87 95       	ror	r24
     e24:	0a 94       	dec	r0
     e26:	e2 f7       	brpl	.-8      	; 0xe20 <qtm_key_sensors_process+0x346>
     e28:	99 27       	eor	r25, r25
     e2a:	28 17       	cp	r18, r24
     e2c:	39 07       	cpc	r19, r25
     e2e:	18 f4       	brcc	.+6      	; 0xe36 <qtm_key_sensors_process+0x35c>
     e30:	d8 01       	movw	r26, r16
     e32:	cc 92       	st	X, r12
     e34:	16 c0       	rjmp	.+44     	; 0xe62 <qtm_key_sensors_process+0x388>
     e36:	f8 01       	movw	r30, r16
     e38:	81 81       	ldd	r24, Z+1	; 0x01
     e3a:	81 11       	cpse	r24, r1
     e3c:	0b c0       	rjmp	.+22     	; 0xe54 <qtm_key_sensors_process+0x37a>
     e3e:	50 82       	st	Z, r5
     e40:	8c 81       	ldd	r24, Y+4	; 0x04
     e42:	9d 81       	ldd	r25, Y+5	; 0x05
     e44:	fc 01       	movw	r30, r24
     e46:	ee 0d       	add	r30, r14
     e48:	ff 1d       	adc	r31, r15
     e4a:	02 80       	ldd	r0, Z+2	; 0x02
     e4c:	f3 81       	ldd	r31, Z+3	; 0x03
     e4e:	e0 2d       	mov	r30, r0
     e50:	c0 82       	st	Z, r12
     e52:	10 c0       	rjmp	.+32     	; 0xe74 <qtm_key_sensors_process+0x39a>
     e54:	81 50       	subi	r24, 0x01	; 1
     e56:	81 83       	std	Z+1, r24	; 0x01
     e58:	dd 24       	eor	r13, r13
     e5a:	d3 94       	inc	r13
     e5c:	0b c0       	rjmp	.+22     	; 0xe74 <qtm_key_sensors_process+0x39a>
     e5e:	f8 01       	movw	r30, r16
     e60:	c0 82       	st	Z, r12
     e62:	8c 81       	ldd	r24, Y+4	; 0x04
     e64:	9d 81       	ldd	r25, Y+5	; 0x05
     e66:	fc 01       	movw	r30, r24
     e68:	ee 0d       	add	r30, r14
     e6a:	ff 1d       	adc	r31, r15
     e6c:	11 82       	std	Z+1, r1	; 0x01
     e6e:	02 c0       	rjmp	.+4      	; 0xe74 <qtm_key_sensors_process+0x39a>
     e70:	22 24       	eor	r2, r2
     e72:	23 94       	inc	r2
     e74:	ff ef       	ldi	r31, 0xFF	; 255
     e76:	8f 1a       	sub	r8, r31
     e78:	9f 0a       	sbc	r9, r31
     e7a:	83 e0       	ldi	r24, 0x03	; 3
     e7c:	a8 0e       	add	r10, r24
     e7e:	b1 1c       	adc	r11, r1
     e80:	54 ce       	rjmp	.-856    	; 0xb2a <qtm_key_sensors_process+0x50>
     e82:	e8 81       	ld	r30, Y
     e84:	f9 81       	ldd	r31, Y+1	; 0x01
     e86:	80 81       	ld	r24, Z
     e88:	87 ff       	sbrs	r24, 7
     e8a:	23 c0       	rjmp	.+70     	; 0xed2 <qtm_key_sensors_process+0x3f8>
     e8c:	40 e0       	ldi	r20, 0x00	; 0
     e8e:	50 e0       	ldi	r21, 0x00	; 0
     e90:	20 e0       	ldi	r18, 0x00	; 0
     e92:	30 e0       	ldi	r19, 0x00	; 0
     e94:	ea 81       	ldd	r30, Y+2	; 0x02
     e96:	fb 81       	ldd	r31, Y+3	; 0x03
     e98:	80 81       	ld	r24, Z
     e9a:	91 81       	ldd	r25, Z+1	; 0x01
     e9c:	28 17       	cp	r18, r24
     e9e:	39 07       	cpc	r19, r25
     ea0:	98 f4       	brcc	.+38     	; 0xec8 <qtm_key_sensors_process+0x3ee>
     ea2:	ec 81       	ldd	r30, Y+4	; 0x04
     ea4:	fd 81       	ldd	r31, Y+5	; 0x05
     ea6:	e4 0f       	add	r30, r20
     ea8:	f5 1f       	adc	r31, r21
     eaa:	a2 81       	ldd	r26, Z+2	; 0x02
     eac:	b3 81       	ldd	r27, Z+3	; 0x03
     eae:	8c 91       	ld	r24, X
     eb0:	80 fd       	sbrc	r24, 0
     eb2:	05 c0       	rjmp	.+10     	; 0xebe <qtm_key_sensors_process+0x3e4>
     eb4:	90 81       	ld	r25, Z
     eb6:	97 7f       	andi	r25, 0xF7	; 247
     eb8:	11 f0       	breq	.+4      	; 0xebe <qtm_key_sensors_process+0x3e4>
     eba:	81 60       	ori	r24, 0x01	; 1
     ebc:	8c 93       	st	X, r24
     ebe:	2f 5f       	subi	r18, 0xFF	; 255
     ec0:	3f 4f       	sbci	r19, 0xFF	; 255
     ec2:	4a 5f       	subi	r20, 0xFA	; 250
     ec4:	5f 4f       	sbci	r21, 0xFF	; 255
     ec6:	e6 cf       	rjmp	.-52     	; 0xe94 <qtm_key_sensors_process+0x3ba>
     ec8:	e8 81       	ld	r30, Y
     eca:	f9 81       	ldd	r31, Y+1	; 0x01
     ecc:	80 81       	ld	r24, Z
     ece:	8f 77       	andi	r24, 0x7F	; 127
     ed0:	80 83       	st	Z, r24
     ed2:	d1 10       	cpse	r13, r1
     ed4:	07 c0       	rjmp	.+14     	; 0xee4 <qtm_key_sensors_process+0x40a>
     ed6:	e8 81       	ld	r30, Y
     ed8:	f9 81       	ldd	r31, Y+1	; 0x01
     eda:	21 10       	cpse	r2, r1
     edc:	6f c0       	rjmp	.+222    	; 0xfbc <qtm_key_sensors_process+0x4e2>
     ede:	80 81       	ld	r24, Z
     ee0:	8e 7f       	andi	r24, 0xFE	; 254
     ee2:	6e c0       	rjmp	.+220    	; 0xfc0 <qtm_key_sensors_process+0x4e6>
     ee4:	ea 81       	ldd	r30, Y+2	; 0x02
     ee6:	fb 81       	ldd	r31, Y+3	; 0x03
     ee8:	81 85       	ldd	r24, Z+9	; 0x09
     eea:	88 23       	and	r24, r24
     eec:	a1 f3       	breq	.-24     	; 0xed6 <qtm_key_sensors_process+0x3fc>
     eee:	e8 81       	ld	r30, Y
     ef0:	f9 81       	ldd	r31, Y+1	; 0x01
     ef2:	80 81       	ld	r24, Z
     ef4:	80 68       	ori	r24, 0x80	; 128
     ef6:	80 83       	st	Z, r24
     ef8:	ea 81       	ldd	r30, Y+2	; 0x02
     efa:	fb 81       	ldd	r31, Y+3	; 0x03
     efc:	81 85       	ldd	r24, Z+9	; 0x09
     efe:	81 30       	cpi	r24, 0x01	; 1
     f00:	51 f7       	brne	.-44     	; 0xed6 <qtm_key_sensors_process+0x3fc>
     f02:	40 e0       	ldi	r20, 0x00	; 0
     f04:	50 e0       	ldi	r21, 0x00	; 0
     f06:	20 e0       	ldi	r18, 0x00	; 0
     f08:	30 e0       	ldi	r19, 0x00	; 0
     f0a:	96 e0       	ldi	r25, 0x06	; 6
     f0c:	d9 2e       	mov	r13, r25
     f0e:	ea 81       	ldd	r30, Y+2	; 0x02
     f10:	fb 81       	ldd	r31, Y+3	; 0x03
     f12:	60 81       	ld	r22, Z
     f14:	71 81       	ldd	r23, Z+1	; 0x01
     f16:	26 17       	cp	r18, r22
     f18:	37 07       	cpc	r19, r23
     f1a:	e8 f6       	brcc	.-70     	; 0xed6 <qtm_key_sensors_process+0x3fc>
     f1c:	0c 81       	ldd	r16, Y+4	; 0x04
     f1e:	1d 81       	ldd	r17, Y+5	; 0x05
     f20:	fa 01       	movw	r30, r20
     f22:	ee 0f       	add	r30, r30
     f24:	ff 1f       	adc	r31, r31
     f26:	e0 0f       	add	r30, r16
     f28:	f1 1f       	adc	r31, r17
     f2a:	80 81       	ld	r24, Z
     f2c:	98 2f       	mov	r25, r24
     f2e:	97 7f       	andi	r25, 0xF7	; 247
     f30:	a1 f1       	breq	.+104    	; 0xf9a <qtm_key_sensors_process+0x4c0>
     f32:	85 38       	cpi	r24, 0x85	; 133
     f34:	11 f0       	breq	.+4      	; 0xf3a <qtm_key_sensors_process+0x460>
     f36:	83 30       	cpi	r24, 0x03	; 3
     f38:	b1 f5       	brne	.+108    	; 0xfa6 <qtm_key_sensors_process+0x4cc>
     f3a:	ee 80       	ldd	r14, Y+6	; 0x06
     f3c:	ff 80       	ldd	r15, Y+7	; 0x07
     f3e:	d7 01       	movw	r26, r14
     f40:	a4 0f       	add	r26, r20
     f42:	b5 1f       	adc	r27, r21
     f44:	12 96       	adiw	r26, 0x02	; 2
     f46:	bc 90       	ld	r11, X
     f48:	bb 20       	and	r11, r11
     f4a:	39 f1       	breq	.+78     	; 0xf9a <qtm_key_sensors_process+0x4c0>
     f4c:	80 e0       	ldi	r24, 0x00	; 0
     f4e:	90 e0       	ldi	r25, 0x00	; 0
     f50:	c1 2c       	mov	r12, r1
     f52:	86 17       	cp	r24, r22
     f54:	97 07       	cpc	r25, r23
     f56:	f8 f4       	brcc	.+62     	; 0xf96 <qtm_key_sensors_process+0x4bc>
     f58:	28 17       	cp	r18, r24
     f5a:	39 07       	cpc	r19, r25
     f5c:	d1 f0       	breq	.+52     	; 0xf92 <qtm_key_sensors_process+0x4b8>
     f5e:	d8 9e       	mul	r13, r24
     f60:	d0 01       	movw	r26, r0
     f62:	d9 9e       	mul	r13, r25
     f64:	b0 0d       	add	r27, r0
     f66:	11 24       	eor	r1, r1
     f68:	a0 0f       	add	r26, r16
     f6a:	b1 1f       	adc	r27, r17
     f6c:	ac 91       	ld	r26, X
     f6e:	a4 30       	cpi	r26, 0x04	; 4
     f70:	11 f0       	breq	.+4      	; 0xf76 <qtm_key_sensors_process+0x49c>
     f72:	a6 38       	cpi	r26, 0x86	; 134
     f74:	71 f4       	brne	.+28     	; 0xf92 <qtm_key_sensors_process+0x4b8>
     f76:	dc 01       	movw	r26, r24
     f78:	aa 0f       	add	r26, r26
     f7a:	bb 1f       	adc	r27, r27
     f7c:	a8 0f       	add	r26, r24
     f7e:	b9 1f       	adc	r27, r25
     f80:	ae 0d       	add	r26, r14
     f82:	bf 1d       	adc	r27, r15
     f84:	12 96       	adiw	r26, 0x02	; 2
     f86:	ac 91       	ld	r26, X
     f88:	ba 12       	cpse	r11, r26
     f8a:	03 c0       	rjmp	.+6      	; 0xf92 <qtm_key_sensors_process+0x4b8>
     f8c:	cb 01       	movw	r24, r22
     f8e:	cc 24       	eor	r12, r12
     f90:	c3 94       	inc	r12
     f92:	01 96       	adiw	r24, 0x01	; 1
     f94:	de cf       	rjmp	.-68     	; 0xf52 <qtm_key_sensors_process+0x478>
     f96:	c1 10       	cpse	r12, r1
     f98:	06 c0       	rjmp	.+12     	; 0xfa6 <qtm_key_sensors_process+0x4cc>
     f9a:	02 80       	ldd	r0, Z+2	; 0x02
     f9c:	f3 81       	ldd	r31, Z+3	; 0x03
     f9e:	e0 2d       	mov	r30, r0
     fa0:	80 81       	ld	r24, Z
     fa2:	8e 7f       	andi	r24, 0xFE	; 254
     fa4:	05 c0       	rjmp	.+10     	; 0xfb0 <qtm_key_sensors_process+0x4d6>
     fa6:	02 80       	ldd	r0, Z+2	; 0x02
     fa8:	f3 81       	ldd	r31, Z+3	; 0x03
     faa:	e0 2d       	mov	r30, r0
     fac:	80 81       	ld	r24, Z
     fae:	81 60       	ori	r24, 0x01	; 1
     fb0:	80 83       	st	Z, r24
     fb2:	2f 5f       	subi	r18, 0xFF	; 255
     fb4:	3f 4f       	sbci	r19, 0xFF	; 255
     fb6:	4d 5f       	subi	r20, 0xFD	; 253
     fb8:	5f 4f       	sbci	r21, 0xFF	; 255
     fba:	a9 cf       	rjmp	.-174    	; 0xf0e <qtm_key_sensors_process+0x434>
     fbc:	80 81       	ld	r24, Z
     fbe:	81 60       	ori	r24, 0x01	; 1
     fc0:	80 83       	st	Z, r24
     fc2:	80 91 88 3e 	lds	r24, 0x3E88	; 0x803e88 <qtm_local_ms_timecount>
     fc6:	90 91 89 3e 	lds	r25, 0x3E89	; 0x803e89 <qtm_local_ms_timecount+0x1>
     fca:	e8 81       	ld	r30, Y
     fcc:	f9 81       	ldd	r31, Y+1	; 0x01
     fce:	21 81       	ldd	r18, Z+1	; 0x01
     fd0:	32 81       	ldd	r19, Z+2	; 0x02
     fd2:	a9 01       	movw	r20, r18
     fd4:	48 53       	subi	r20, 0x38	; 56
     fd6:	5f 4f       	sbci	r21, 0xFF	; 255
     fd8:	48 17       	cp	r20, r24
     fda:	59 07       	cpc	r21, r25
     fdc:	38 f4       	brcc	.+14     	; 0xfec <qtm_key_sensors_process+0x512>
     fde:	82 1b       	sub	r24, r18
     fe0:	93 0b       	sbc	r25, r19
     fe2:	aa 24       	eor	r10, r10
     fe4:	a3 94       	inc	r10
     fe6:	a3 e0       	ldi	r26, 0x03	; 3
     fe8:	ba 2e       	mov	r11, r26
     fea:	44 c0       	rjmp	.+136    	; 0x1074 <qtm_key_sensors_process+0x59a>
     fec:	82 17       	cp	r24, r18
     fee:	93 07       	cpc	r25, r19
     ff0:	10 f0       	brcs	.+4      	; 0xff6 <qtm_key_sensors_process+0x51c>
     ff2:	80 e0       	ldi	r24, 0x00	; 0
     ff4:	04 c1       	rjmp	.+520    	; 0x11fe <qtm_key_sensors_process+0x724>
     ff6:	82 1b       	sub	r24, r18
     ff8:	93 0b       	sbc	r25, r19
     ffa:	01 97       	sbiw	r24, 0x01	; 1
     ffc:	89 3c       	cpi	r24, 0xC9	; 201
     ffe:	91 05       	cpc	r25, r1
    1000:	c0 f3       	brcs	.-16     	; 0xff2 <qtm_key_sensors_process+0x518>
    1002:	ef cf       	rjmp	.-34     	; 0xfe2 <qtm_key_sensors_process+0x508>
    1004:	88 5c       	subi	r24, 0xC8	; 200
    1006:	91 09       	sbc	r25, r1
    1008:	e8 81       	ld	r30, Y
    100a:	f9 81       	ldd	r31, Y+1	; 0x01
    100c:	21 81       	ldd	r18, Z+1	; 0x01
    100e:	32 81       	ldd	r19, Z+2	; 0x02
    1010:	28 53       	subi	r18, 0x38	; 56
    1012:	3f 4f       	sbci	r19, 0xFF	; 255
    1014:	21 83       	std	Z+1, r18	; 0x01
    1016:	32 83       	std	Z+2, r19	; 0x02
    1018:	23 81       	ldd	r18, Z+3	; 0x03
    101a:	21 11       	cpse	r18, r1
    101c:	96 c0       	rjmp	.+300    	; 0x114a <qtm_key_sensors_process+0x670>
    101e:	24 81       	ldd	r18, Z+4	; 0x04
    1020:	22 23       	and	r18, r18
    1022:	11 f0       	breq	.+4      	; 0x1028 <qtm_key_sensors_process+0x54e>
    1024:	21 50       	subi	r18, 0x01	; 1
    1026:	24 83       	std	Z+4, r18	; 0x04
    1028:	e8 81       	ld	r30, Y
    102a:	f9 81       	ldd	r31, Y+1	; 0x01
    102c:	25 81       	ldd	r18, Z+5	; 0x05
    102e:	22 23       	and	r18, r18
    1030:	11 f0       	breq	.+4      	; 0x1036 <qtm_key_sensors_process+0x55c>
    1032:	21 50       	subi	r18, 0x01	; 1
    1034:	25 83       	std	Z+5, r18	; 0x05
    1036:	8a 80       	ldd	r8, Y+2	; 0x02
    1038:	9b 80       	ldd	r9, Y+3	; 0x03
    103a:	d4 01       	movw	r26, r8
    103c:	16 96       	adiw	r26, 0x06	; 6
    103e:	2c 91       	ld	r18, X
    1040:	16 97       	sbiw	r26, 0x06	; 6
    1042:	21 11       	cpse	r18, r1
    1044:	1b c0       	rjmp	.+54     	; 0x107c <qtm_key_sensors_process+0x5a2>
    1046:	8a 80       	ldd	r8, Y+2	; 0x02
    1048:	9b 80       	ldd	r9, Y+3	; 0x03
    104a:	f4 01       	movw	r30, r8
    104c:	27 81       	ldd	r18, Z+7	; 0x07
    104e:	21 11       	cpse	r18, r1
    1050:	48 c0       	rjmp	.+144    	; 0x10e2 <qtm_key_sensors_process+0x608>
    1052:	ea 81       	ldd	r30, Y+2	; 0x02
    1054:	fb 81       	ldd	r31, Y+3	; 0x03
    1056:	23 81       	ldd	r18, Z+3	; 0x03
    1058:	22 23       	and	r18, r18
    105a:	61 f0       	breq	.+24     	; 0x1074 <qtm_key_sensors_process+0x59a>
    105c:	20 e0       	ldi	r18, 0x00	; 0
    105e:	30 e0       	ldi	r19, 0x00	; 0
    1060:	a0 e0       	ldi	r26, 0x00	; 0
    1062:	b0 e0       	ldi	r27, 0x00	; 0
    1064:	ea 81       	ldd	r30, Y+2	; 0x02
    1066:	fb 81       	ldd	r31, Y+3	; 0x03
    1068:	40 81       	ld	r20, Z
    106a:	51 81       	ldd	r21, Z+1	; 0x01
    106c:	a4 17       	cp	r26, r20
    106e:	b5 07       	cpc	r27, r21
    1070:	08 f4       	brcc	.+2      	; 0x1074 <qtm_key_sensors_process+0x59a>
    1072:	6e c0       	rjmp	.+220    	; 0x1150 <qtm_key_sensors_process+0x676>
    1074:	89 3c       	cpi	r24, 0xC9	; 201
    1076:	91 05       	cpc	r25, r1
    1078:	28 f6       	brcc	.-118    	; 0x1004 <qtm_key_sensors_process+0x52a>
    107a:	bb cf       	rjmp	.-138    	; 0xff2 <qtm_key_sensors_process+0x518>
    107c:	08 81       	ld	r16, Y
    107e:	19 81       	ldd	r17, Y+1	; 0x01
    1080:	f8 01       	movw	r30, r16
    1082:	24 81       	ldd	r18, Z+4	; 0x04
    1084:	21 11       	cpse	r18, r1
    1086:	df cf       	rjmp	.-66     	; 0x1046 <qtm_key_sensors_process+0x56c>
    1088:	ed 90       	ld	r14, X+
    108a:	fc 90       	ld	r15, X
    108c:	60 e0       	ldi	r22, 0x00	; 0
    108e:	70 e0       	ldi	r23, 0x00	; 0
    1090:	40 e0       	ldi	r20, 0x00	; 0
    1092:	50 e0       	ldi	r21, 0x00	; 0
    1094:	4e 15       	cp	r20, r14
    1096:	5f 05       	cpc	r21, r15
    1098:	f1 f0       	breq	.+60     	; 0x10d6 <qtm_key_sensors_process+0x5fc>
    109a:	ec 81       	ldd	r30, Y+4	; 0x04
    109c:	fd 81       	ldd	r31, Y+5	; 0x05
    109e:	e6 0f       	add	r30, r22
    10a0:	f7 1f       	adc	r31, r23
    10a2:	20 81       	ld	r18, Z
    10a4:	23 30       	cpi	r18, 0x03	; 3
    10a6:	11 f0       	breq	.+4      	; 0x10ac <qtm_key_sensors_process+0x5d2>
    10a8:	28 30       	cpi	r18, 0x08	; 8
    10aa:	81 f4       	brne	.+32     	; 0x10cc <qtm_key_sensors_process+0x5f2>
    10ac:	24 81       	ldd	r18, Z+4	; 0x04
    10ae:	35 81       	ldd	r19, Z+5	; 0x05
    10b0:	c2 80       	ldd	r12, Z+2	; 0x02
    10b2:	d3 80       	ldd	r13, Z+3	; 0x03
    10b4:	d6 01       	movw	r26, r12
    10b6:	11 96       	adiw	r26, 0x01	; 1
    10b8:	cd 90       	ld	r12, X+
    10ba:	dc 90       	ld	r13, X
    10bc:	12 97       	sbiw	r26, 0x02	; 2
    10be:	2c 15       	cp	r18, r12
    10c0:	3d 05       	cpc	r19, r13
    10c2:	20 f4       	brcc	.+8      	; 0x10cc <qtm_key_sensors_process+0x5f2>
    10c4:	2f 5f       	subi	r18, 0xFF	; 255
    10c6:	3f 4f       	sbci	r19, 0xFF	; 255
    10c8:	24 83       	std	Z+4, r18	; 0x04
    10ca:	35 83       	std	Z+5, r19	; 0x05
    10cc:	4f 5f       	subi	r20, 0xFF	; 255
    10ce:	5f 4f       	sbci	r21, 0xFF	; 255
    10d0:	6a 5f       	subi	r22, 0xFA	; 250
    10d2:	7f 4f       	sbci	r23, 0xFF	; 255
    10d4:	df cf       	rjmp	.-66     	; 0x1094 <qtm_key_sensors_process+0x5ba>
    10d6:	f4 01       	movw	r30, r8
    10d8:	26 81       	ldd	r18, Z+6	; 0x06
    10da:	d8 01       	movw	r26, r16
    10dc:	14 96       	adiw	r26, 0x04	; 4
    10de:	2c 93       	st	X, r18
    10e0:	b2 cf       	rjmp	.-156    	; 0x1046 <qtm_key_sensors_process+0x56c>
    10e2:	08 81       	ld	r16, Y
    10e4:	19 81       	ldd	r17, Y+1	; 0x01
    10e6:	d8 01       	movw	r26, r16
    10e8:	15 96       	adiw	r26, 0x05	; 5
    10ea:	2c 91       	ld	r18, X
    10ec:	21 11       	cpse	r18, r1
    10ee:	b1 cf       	rjmp	.-158    	; 0x1052 <qtm_key_sensors_process+0x578>
    10f0:	e0 80       	ld	r14, Z
    10f2:	f1 80       	ldd	r15, Z+1	; 0x01
    10f4:	60 e0       	ldi	r22, 0x00	; 0
    10f6:	70 e0       	ldi	r23, 0x00	; 0
    10f8:	40 e0       	ldi	r20, 0x00	; 0
    10fa:	50 e0       	ldi	r21, 0x00	; 0
    10fc:	4e 15       	cp	r20, r14
    10fe:	5f 05       	cpc	r21, r15
    1100:	f1 f0       	breq	.+60     	; 0x113e <qtm_key_sensors_process+0x664>
    1102:	ec 81       	ldd	r30, Y+4	; 0x04
    1104:	fd 81       	ldd	r31, Y+5	; 0x05
    1106:	e6 0f       	add	r30, r22
    1108:	f7 1f       	adc	r31, r23
    110a:	20 81       	ld	r18, Z
    110c:	23 30       	cpi	r18, 0x03	; 3
    110e:	11 f0       	breq	.+4      	; 0x1114 <qtm_key_sensors_process+0x63a>
    1110:	28 30       	cpi	r18, 0x08	; 8
    1112:	81 f4       	brne	.+32     	; 0x1134 <qtm_key_sensors_process+0x65a>
    1114:	24 81       	ldd	r18, Z+4	; 0x04
    1116:	35 81       	ldd	r19, Z+5	; 0x05
    1118:	c2 80       	ldd	r12, Z+2	; 0x02
    111a:	d3 80       	ldd	r13, Z+3	; 0x03
    111c:	d6 01       	movw	r26, r12
    111e:	11 96       	adiw	r26, 0x01	; 1
    1120:	cd 90       	ld	r12, X+
    1122:	dc 90       	ld	r13, X
    1124:	12 97       	sbiw	r26, 0x02	; 2
    1126:	c2 16       	cp	r12, r18
    1128:	d3 06       	cpc	r13, r19
    112a:	20 f4       	brcc	.+8      	; 0x1134 <qtm_key_sensors_process+0x65a>
    112c:	21 50       	subi	r18, 0x01	; 1
    112e:	31 09       	sbc	r19, r1
    1130:	24 83       	std	Z+4, r18	; 0x04
    1132:	35 83       	std	Z+5, r19	; 0x05
    1134:	4f 5f       	subi	r20, 0xFF	; 255
    1136:	5f 4f       	sbci	r21, 0xFF	; 255
    1138:	6a 5f       	subi	r22, 0xFA	; 250
    113a:	7f 4f       	sbci	r23, 0xFF	; 255
    113c:	df cf       	rjmp	.-66     	; 0x10fc <qtm_key_sensors_process+0x622>
    113e:	f4 01       	movw	r30, r8
    1140:	27 81       	ldd	r18, Z+7	; 0x07
    1142:	d8 01       	movw	r26, r16
    1144:	15 96       	adiw	r26, 0x05	; 5
    1146:	2c 93       	st	X, r18
    1148:	84 cf       	rjmp	.-248    	; 0x1052 <qtm_key_sensors_process+0x578>
    114a:	21 50       	subi	r18, 0x01	; 1
    114c:	23 83       	std	Z+3, r18	; 0x03
    114e:	81 cf       	rjmp	.-254    	; 0x1052 <qtm_key_sensors_process+0x578>
    1150:	a9 01       	movw	r20, r18
    1152:	44 0f       	add	r20, r20
    1154:	55 1f       	adc	r21, r21
    1156:	ec 81       	ldd	r30, Y+4	; 0x04
    1158:	fd 81       	ldd	r31, Y+5	; 0x05
    115a:	e4 0f       	add	r30, r20
    115c:	f5 1f       	adc	r31, r21
    115e:	60 81       	ld	r22, Z
    1160:	65 38       	cpi	r22, 0x85	; 133
    1162:	09 f0       	breq	.+2      	; 0x1166 <qtm_key_sensors_process+0x68c>
    1164:	47 c0       	rjmp	.+142    	; 0x11f4 <qtm_key_sensors_process+0x71a>
    1166:	61 81       	ldd	r22, Z+1	; 0x01
    1168:	66 23       	and	r22, r22
    116a:	19 f0       	breq	.+6      	; 0x1172 <qtm_key_sensors_process+0x698>
    116c:	61 50       	subi	r22, 0x01	; 1
    116e:	61 83       	std	Z+1, r22	; 0x01
    1170:	41 c0       	rjmp	.+130    	; 0x11f4 <qtm_key_sensors_process+0x71a>
    1172:	a0 82       	st	Z, r10
    1174:	6c 81       	ldd	r22, Y+4	; 0x04
    1176:	7d 81       	ldd	r23, Y+5	; 0x05
    1178:	fb 01       	movw	r30, r22
    117a:	e4 0f       	add	r30, r20
    117c:	f5 1f       	adc	r31, r21
    117e:	02 80       	ldd	r0, Z+2	; 0x02
    1180:	f3 81       	ldd	r31, Z+3	; 0x03
    1182:	e0 2d       	mov	r30, r0
    1184:	b0 82       	st	Z, r11
    1186:	ee 81       	ldd	r30, Y+6	; 0x06
    1188:	ff 81       	ldd	r31, Y+7	; 0x07
    118a:	e2 0f       	add	r30, r18
    118c:	f3 1f       	adc	r31, r19
    118e:	d2 80       	ldd	r13, Z+2	; 0x02
    1190:	dd 20       	and	r13, r13
    1192:	81 f1       	breq	.+96     	; 0x11f4 <qtm_key_sensors_process+0x71a>
    1194:	40 e0       	ldi	r20, 0x00	; 0
    1196:	50 e0       	ldi	r21, 0x00	; 0
    1198:	00 e0       	ldi	r16, 0x00	; 0
    119a:	10 e0       	ldi	r17, 0x00	; 0
    119c:	ea 81       	ldd	r30, Y+2	; 0x02
    119e:	fb 81       	ldd	r31, Y+3	; 0x03
    11a0:	60 81       	ld	r22, Z
    11a2:	71 81       	ldd	r23, Z+1	; 0x01
    11a4:	06 17       	cp	r16, r22
    11a6:	17 07       	cpc	r17, r23
    11a8:	28 f5       	brcc	.+74     	; 0x11f4 <qtm_key_sensors_process+0x71a>
    11aa:	ee 81       	ldd	r30, Y+6	; 0x06
    11ac:	ff 81       	ldd	r31, Y+7	; 0x07
    11ae:	e4 0f       	add	r30, r20
    11b0:	f5 1f       	adc	r31, r21
    11b2:	62 81       	ldd	r22, Z+2	; 0x02
    11b4:	d6 12       	cpse	r13, r22
    11b6:	19 c0       	rjmp	.+50     	; 0x11ea <qtm_key_sensors_process+0x710>
    11b8:	ba 01       	movw	r22, r20
    11ba:	66 0f       	add	r22, r22
    11bc:	77 1f       	adc	r23, r23
    11be:	ec 81       	ldd	r30, Y+4	; 0x04
    11c0:	fd 81       	ldd	r31, Y+5	; 0x05
    11c2:	4f 01       	movw	r8, r30
    11c4:	86 0e       	add	r8, r22
    11c6:	97 1e       	adc	r9, r23
    11c8:	f4 01       	movw	r30, r8
    11ca:	e2 80       	ldd	r14, Z+2	; 0x02
    11cc:	f3 80       	ldd	r15, Z+3	; 0x03
    11ce:	f7 01       	movw	r30, r14
    11d0:	f0 80       	ld	r15, Z
    11d2:	f0 fe       	sbrs	r15, 0
    11d4:	0a c0       	rjmp	.+20     	; 0x11ea <qtm_key_sensors_process+0x710>
    11d6:	f4 01       	movw	r30, r8
    11d8:	a0 82       	st	Z, r10
    11da:	ec 81       	ldd	r30, Y+4	; 0x04
    11dc:	fd 81       	ldd	r31, Y+5	; 0x05
    11de:	e6 0f       	add	r30, r22
    11e0:	f7 1f       	adc	r31, r23
    11e2:	02 80       	ldd	r0, Z+2	; 0x02
    11e4:	f3 81       	ldd	r31, Z+3	; 0x03
    11e6:	e0 2d       	mov	r30, r0
    11e8:	b0 82       	st	Z, r11
    11ea:	0f 5f       	subi	r16, 0xFF	; 255
    11ec:	1f 4f       	sbci	r17, 0xFF	; 255
    11ee:	4d 5f       	subi	r20, 0xFD	; 253
    11f0:	5f 4f       	sbci	r21, 0xFF	; 255
    11f2:	d4 cf       	rjmp	.-88     	; 0x119c <qtm_key_sensors_process+0x6c2>
    11f4:	11 96       	adiw	r26, 0x01	; 1
    11f6:	2d 5f       	subi	r18, 0xFD	; 253
    11f8:	3f 4f       	sbci	r19, 0xFF	; 255
    11fa:	34 cf       	rjmp	.-408    	; 0x1064 <qtm_key_sensors_process+0x58a>
    11fc:	8b e0       	ldi	r24, 0x0B	; 11
    11fe:	df 91       	pop	r29
    1200:	cf 91       	pop	r28
    1202:	1f 91       	pop	r17
    1204:	0f 91       	pop	r16
    1206:	ff 90       	pop	r15
    1208:	ef 90       	pop	r14
    120a:	df 90       	pop	r13
    120c:	cf 90       	pop	r12
    120e:	bf 90       	pop	r11
    1210:	af 90       	pop	r10
    1212:	9f 90       	pop	r9
    1214:	8f 90       	pop	r8
    1216:	7f 90       	pop	r7
    1218:	6f 90       	pop	r6
    121a:	5f 90       	pop	r5
    121c:	4f 90       	pop	r4
    121e:	3f 90       	pop	r3
    1220:	2f 90       	pop	r2
    1222:	08 95       	ret

00001224 <select_next_channel_to_measure>:
    1224:	80 91 8d 3e 	lds	r24, 0x3E8D	; 0x803e8d <current_measure_channel>
    1228:	90 91 8e 3e 	lds	r25, 0x3E8E	; 0x803e8e <current_measure_channel+0x1>
    122c:	a0 91 e4 3e 	lds	r26, 0x3EE4	; 0x803ee4 <qtm_acquisition_control_working_set_ptr>
    1230:	b0 91 e5 3e 	lds	r27, 0x3EE5	; 0x803ee5 <qtm_acquisition_control_working_set_ptr+0x1>
    1234:	ed 91       	ld	r30, X+
    1236:	fc 91       	ld	r31, X
    1238:	11 97       	sbiw	r26, 0x01	; 1
    123a:	40 81       	ld	r20, Z
    123c:	51 81       	ldd	r21, Z+1	; 0x01
    123e:	25 e0       	ldi	r18, 0x05	; 5
    1240:	28 9f       	mul	r18, r24
    1242:	b0 01       	movw	r22, r0
    1244:	29 9f       	mul	r18, r25
    1246:	70 0d       	add	r23, r0
    1248:	11 24       	eor	r1, r1
    124a:	20 e0       	ldi	r18, 0x00	; 0
    124c:	30 e0       	ldi	r19, 0x00	; 0
    124e:	84 17       	cp	r24, r20
    1250:	95 07       	cpc	r25, r21
    1252:	a8 f4       	brcc	.+42     	; 0x127e <select_next_channel_to_measure+0x5a>
    1254:	14 96       	adiw	r26, 0x04	; 4
    1256:	ed 91       	ld	r30, X+
    1258:	fc 91       	ld	r31, X
    125a:	15 97       	sbiw	r26, 0x05	; 5
    125c:	e2 0f       	add	r30, r18
    125e:	f3 1f       	adc	r31, r19
    1260:	e6 0f       	add	r30, r22
    1262:	f7 1f       	adc	r31, r23
    1264:	e0 81       	ld	r30, Z
    1266:	2b 5f       	subi	r18, 0xFB	; 251
    1268:	3f 4f       	sbci	r19, 0xFF	; 255
    126a:	e0 fd       	sbrc	r30, 0
    126c:	02 c0       	rjmp	.+4      	; 0x1272 <select_next_channel_to_measure+0x4e>
    126e:	01 96       	adiw	r24, 0x01	; 1
    1270:	ee cf       	rjmp	.-36     	; 0x124e <select_next_channel_to_measure+0x2a>
    1272:	80 93 8d 3e 	sts	0x3E8D, r24	; 0x803e8d <current_measure_channel>
    1276:	90 93 8e 3e 	sts	0x3E8E, r25	; 0x803e8e <current_measure_channel+0x1>
    127a:	80 e0       	ldi	r24, 0x00	; 0
    127c:	08 95       	ret
    127e:	10 92 8d 3e 	sts	0x3E8D, r1	; 0x803e8d <current_measure_channel>
    1282:	10 92 8e 3e 	sts	0x3E8E, r1	; 0x803e8e <current_measure_channel+0x1>
    1286:	81 e0       	ldi	r24, 0x01	; 1
    1288:	08 95       	ret

0000128a <qtm_measure_node>:
    128a:	bc 01       	movw	r22, r24
    128c:	e0 91 e4 3e 	lds	r30, 0x3EE4	; 0x803ee4 <qtm_acquisition_control_working_set_ptr>
    1290:	f0 91 e5 3e 	lds	r31, 0x3EE5	; 0x803ee5 <qtm_acquisition_control_working_set_ptr+0x1>
    1294:	86 e0       	ldi	r24, 0x06	; 6
    1296:	86 9f       	mul	r24, r22
    1298:	90 01       	movw	r18, r0
    129a:	87 9f       	mul	r24, r23
    129c:	30 0d       	add	r19, r0
    129e:	11 24       	eor	r1, r1
    12a0:	a2 81       	ldd	r26, Z+2	; 0x02
    12a2:	b3 81       	ldd	r27, Z+3	; 0x03
    12a4:	a2 0f       	add	r26, r18
    12a6:	b3 1f       	adc	r27, r19
    12a8:	11 96       	adiw	r26, 0x01	; 1
    12aa:	8c 91       	ld	r24, X
    12ac:	80 93 2a 06 	sts	0x062A, r24	; 0x80062a <gain_setting_int_cap+0x7f6a00>
    12b0:	a2 81       	ldd	r26, Z+2	; 0x02
    12b2:	b3 81       	ldd	r27, Z+3	; 0x03
    12b4:	a2 0f       	add	r26, r18
    12b6:	b3 1f       	adc	r27, r19
    12b8:	8c 91       	ld	r24, X
    12ba:	80 93 26 06 	sts	0x0626, r24	; 0x800626 <gain_setting_int_cap+0x7f69fc>
    12be:	95 e0       	ldi	r25, 0x05	; 5
    12c0:	96 9f       	mul	r25, r22
    12c2:	a0 01       	movw	r20, r0
    12c4:	97 9f       	mul	r25, r23
    12c6:	50 0d       	add	r21, r0
    12c8:	11 24       	eor	r1, r1
    12ca:	a4 81       	ldd	r26, Z+4	; 0x04
    12cc:	b5 81       	ldd	r27, Z+5	; 0x05
    12ce:	a4 0f       	add	r26, r20
    12d0:	b5 1f       	adc	r27, r21
    12d2:	13 96       	adiw	r26, 0x03	; 3
    12d4:	8c 91       	ld	r24, X
    12d6:	80 93 1a 06 	sts	0x061A, r24	; 0x80061a <gain_setting_int_cap+0x7f69f0>
    12da:	a4 81       	ldd	r26, Z+4	; 0x04
    12dc:	b5 81       	ldd	r27, Z+5	; 0x05
    12de:	a4 0f       	add	r26, r20
    12e0:	b5 1f       	adc	r27, r21
    12e2:	14 96       	adiw	r26, 0x04	; 4
    12e4:	8c 91       	ld	r24, X
    12e6:	80 93 1b 06 	sts	0x061B, r24	; 0x80061b <gain_setting_int_cap+0x7f69f1>
    12ea:	a4 81       	ldd	r26, Z+4	; 0x04
    12ec:	b5 81       	ldd	r27, Z+5	; 0x05
    12ee:	a4 0f       	add	r26, r20
    12f0:	b5 1f       	adc	r27, r21
    12f2:	8c 91       	ld	r24, X
    12f4:	81 fd       	sbrc	r24, 1
    12f6:	9c 93       	st	X, r25
    12f8:	84 81       	ldd	r24, Z+4	; 0x04
    12fa:	95 81       	ldd	r25, Z+5	; 0x05
    12fc:	dc 01       	movw	r26, r24
    12fe:	a4 0f       	add	r26, r20
    1300:	b5 1f       	adc	r27, r21
    1302:	8c 91       	ld	r24, X
    1304:	8c 71       	andi	r24, 0x1C	; 28
    1306:	69 f4       	brne	.+26     	; 0x1322 <qtm_measure_node+0x98>
    1308:	a2 81       	ldd	r26, Z+2	; 0x02
    130a:	b3 81       	ldd	r27, Z+3	; 0x03
    130c:	a2 0f       	add	r26, r18
    130e:	b3 1f       	adc	r27, r19
    1310:	14 96       	adiw	r26, 0x04	; 4
    1312:	ac 91       	ld	r26, X
    1314:	a2 95       	swap	r26
    1316:	af 70       	andi	r26, 0x0F	; 15
    1318:	b0 e0       	ldi	r27, 0x00	; 0
    131a:	a6 5d       	subi	r26, 0xD6	; 214
    131c:	b3 46       	sbci	r27, 0x63	; 99
    131e:	8c 91       	ld	r24, X
    1320:	01 c0       	rjmp	.+2      	; 0x1324 <qtm_measure_node+0x9a>
    1322:	8f e3       	ldi	r24, 0x3F	; 63
    1324:	80 93 1c 06 	sts	0x061C, r24	; 0x80061c <gain_setting_int_cap+0x7f69f2>
    1328:	a2 81       	ldd	r26, Z+2	; 0x02
    132a:	b3 81       	ldd	r27, Z+3	; 0x03
    132c:	a2 0f       	add	r26, r18
    132e:	b3 1f       	adc	r27, r19
    1330:	12 96       	adiw	r26, 0x02	; 2
    1332:	8c 91       	ld	r24, X
    1334:	8b 31       	cpi	r24, 0x1B	; 27
    1336:	10 f4       	brcc	.+4      	; 0x133c <qtm_measure_node+0xb2>
    1338:	8c 5f       	subi	r24, 0xFC	; 252
    133a:	01 c0       	rjmp	.+2      	; 0x133e <qtm_measure_node+0xb4>
    133c:	8f e1       	ldi	r24, 0x1F	; 31
    133e:	80 93 05 06 	sts	0x0605, r24	; 0x800605 <gain_setting_int_cap+0x7f69db>
    1342:	a2 81       	ldd	r26, Z+2	; 0x02
    1344:	b3 81       	ldd	r27, Z+3	; 0x03
    1346:	a2 0f       	add	r26, r18
    1348:	b3 1f       	adc	r27, r19
    134a:	15 96       	adiw	r26, 0x05	; 5
    134c:	8c 91       	ld	r24, X
    134e:	80 93 01 06 	sts	0x0601, r24	; 0x800601 <gain_setting_int_cap+0x7f69d7>
    1352:	a2 81       	ldd	r26, Z+2	; 0x02
    1354:	b3 81       	ldd	r27, Z+3	; 0x03
    1356:	a2 0f       	add	r26, r18
    1358:	b3 1f       	adc	r27, r19
    135a:	13 96       	adiw	r26, 0x03	; 3
    135c:	8c 91       	ld	r24, X
    135e:	82 95       	swap	r24
    1360:	8f 70       	andi	r24, 0x0F	; 15
    1362:	80 93 19 06 	sts	0x0619, r24	; 0x800619 <gain_setting_int_cap+0x7f69ef>
    1366:	82 81       	ldd	r24, Z+2	; 0x02
    1368:	93 81       	ldd	r25, Z+3	; 0x03
    136a:	fc 01       	movw	r30, r24
    136c:	e2 0f       	add	r30, r18
    136e:	f3 1f       	adc	r31, r19
    1370:	83 81       	ldd	r24, Z+3	; 0x03
    1372:	8f 70       	andi	r24, 0x0F	; 15
    1374:	80 61       	ori	r24, 0x10	; 16
    1376:	80 93 02 06 	sts	0x0602, r24	; 0x800602 <gain_setting_int_cap+0x7f69d8>
    137a:	80 91 18 06 	lds	r24, 0x0618	; 0x800618 <gain_setting_int_cap+0x7f69ee>
    137e:	83 60       	ori	r24, 0x03	; 3
    1380:	80 93 18 06 	sts	0x0618, r24	; 0x800618 <gain_setting_int_cap+0x7f69ee>
    1384:	81 e8       	ldi	r24, 0x81	; 129
    1386:	80 93 00 06 	sts	0x0600, r24	; 0x800600 <gain_setting_int_cap+0x7f69d6>
    138a:	81 e0       	ldi	r24, 0x01	; 1
    138c:	80 93 08 06 	sts	0x0608, r24	; 0x800608 <gain_setting_int_cap+0x7f69de>
    1390:	08 95       	ret

00001392 <qtm_acquisition_process>:
    1392:	3f 92       	push	r3
    1394:	4f 92       	push	r4
    1396:	5f 92       	push	r5
    1398:	6f 92       	push	r6
    139a:	7f 92       	push	r7
    139c:	8f 92       	push	r8
    139e:	9f 92       	push	r9
    13a0:	af 92       	push	r10
    13a2:	bf 92       	push	r11
    13a4:	cf 92       	push	r12
    13a6:	df 92       	push	r13
    13a8:	ef 92       	push	r14
    13aa:	ff 92       	push	r15
    13ac:	0f 93       	push	r16
    13ae:	1f 93       	push	r17
    13b0:	cf 93       	push	r28
    13b2:	df 93       	push	r29
    13b4:	80 91 8c 3e 	lds	r24, 0x3E8C	; 0x803e8c <touch_seq_lib_state>
    13b8:	88 23       	and	r24, r24
    13ba:	09 f4       	brne	.+2      	; 0x13be <qtm_acquisition_process+0x2c>
    13bc:	48 c1       	rjmp	.+656    	; 0x164e <qtm_acquisition_process+0x2bc>
    13be:	a0 91 e4 3e 	lds	r26, 0x3EE4	; 0x803ee4 <qtm_acquisition_control_working_set_ptr>
    13c2:	b0 91 e5 3e 	lds	r27, 0x3EE5	; 0x803ee5 <qtm_acquisition_control_working_set_ptr+0x1>
    13c6:	c0 90 e6 3e 	lds	r12, 0x3EE6	; 0x803ee6 <qtm_raw_data_measurements_ptr>
    13ca:	d0 90 e7 3e 	lds	r13, 0x3EE7	; 0x803ee7 <qtm_raw_data_measurements_ptr+0x1>
    13ce:	00 e0       	ldi	r16, 0x00	; 0
    13d0:	10 e0       	ldi	r17, 0x00	; 0
    13d2:	60 e0       	ldi	r22, 0x00	; 0
    13d4:	70 e0       	ldi	r23, 0x00	; 0
    13d6:	e1 2c       	mov	r14, r1
    13d8:	f1 2c       	mov	r15, r1
    13da:	80 e0       	ldi	r24, 0x00	; 0
    13dc:	33 24       	eor	r3, r3
    13de:	33 94       	inc	r3
    13e0:	d1 e8       	ldi	r29, 0x81	; 129
    13e2:	4d 2e       	mov	r4, r29
    13e4:	88 24       	eor	r8, r8
    13e6:	8a 94       	dec	r8
    13e8:	99 24       	eor	r9, r9
    13ea:	93 94       	inc	r9
    13ec:	6d 90       	ld	r6, X+
    13ee:	7c 90       	ld	r7, X
    13f0:	11 97       	sbiw	r26, 0x01	; 1
    13f2:	f3 01       	movw	r30, r6
    13f4:	20 81       	ld	r18, Z
    13f6:	31 81       	ldd	r19, Z+1	; 0x01
    13f8:	e2 16       	cp	r14, r18
    13fa:	f3 06       	cpc	r15, r19
    13fc:	08 f0       	brcs	.+2      	; 0x1400 <qtm_acquisition_process+0x6e>
    13fe:	23 c1       	rjmp	.+582    	; 0x1646 <qtm_acquisition_process+0x2b4>
    1400:	e6 01       	movw	r28, r12
    1402:	29 91       	ld	r18, Y+
    1404:	39 91       	ld	r19, Y+
    1406:	6e 01       	movw	r12, r28
    1408:	14 96       	adiw	r26, 0x04	; 4
    140a:	ed 91       	ld	r30, X+
    140c:	fc 91       	ld	r31, X
    140e:	15 97       	sbiw	r26, 0x05	; 5
    1410:	e6 0f       	add	r30, r22
    1412:	f7 1f       	adc	r31, r23
    1414:	40 81       	ld	r20, Z
    1416:	4c 71       	andi	r20, 0x1C	; 28
    1418:	50 e0       	ldi	r21, 0x00	; 0
    141a:	56 95       	lsr	r21
    141c:	47 95       	ror	r20
    141e:	56 95       	lsr	r21
    1420:	47 95       	ror	r20
    1422:	41 15       	cp	r20, r1
    1424:	51 05       	cpc	r21, r1
    1426:	21 f0       	breq	.+8      	; 0x1430 <qtm_acquisition_process+0x9e>
    1428:	41 30       	cpi	r20, 0x01	; 1
    142a:	51 05       	cpc	r21, r1
    142c:	b9 f0       	breq	.+46     	; 0x145c <qtm_acquisition_process+0xca>
    142e:	02 c1       	rjmp	.+516    	; 0x1634 <qtm_acquisition_process+0x2a2>
    1430:	12 96       	adiw	r26, 0x02	; 2
    1432:	cd 91       	ld	r28, X+
    1434:	dc 91       	ld	r29, X
    1436:	13 97       	sbiw	r26, 0x03	; 3
    1438:	c0 0f       	add	r28, r16
    143a:	d1 1f       	adc	r29, r17
    143c:	4c 81       	ldd	r20, Y+4	; 0x04
    143e:	4f 70       	andi	r20, 0x0F	; 15
    1440:	9d 81       	ldd	r25, Y+5	; 0x05
    1442:	49 17       	cp	r20, r25
    1444:	10 f4       	brcc	.+4      	; 0x144a <qtm_acquisition_process+0xb8>
    1446:	94 1b       	sub	r25, r20
    1448:	01 c0       	rjmp	.+2      	; 0x144c <qtm_acquisition_process+0xba>
    144a:	90 e0       	ldi	r25, 0x00	; 0
    144c:	02 c0       	rjmp	.+4      	; 0x1452 <qtm_acquisition_process+0xc0>
    144e:	36 95       	lsr	r19
    1450:	27 95       	ror	r18
    1452:	9a 95       	dec	r25
    1454:	e2 f7       	brpl	.-8      	; 0x144e <qtm_acquisition_process+0xbc>
    1456:	21 83       	std	Z+1, r18	; 0x01
    1458:	32 83       	std	Z+2, r19	; 0x02
    145a:	ed c0       	rjmp	.+474    	; 0x1636 <qtm_acquisition_process+0x2a4>
    145c:	12 96       	adiw	r26, 0x02	; 2
    145e:	4d 91       	ld	r20, X+
    1460:	5c 91       	ld	r21, X
    1462:	13 97       	sbiw	r26, 0x03	; 3
    1464:	40 0f       	add	r20, r16
    1466:	51 1f       	adc	r21, r17
    1468:	ea 01       	movw	r28, r20
    146a:	0d 80       	ldd	r0, Y+5	; 0x05
    146c:	02 c0       	rjmp	.+4      	; 0x1472 <qtm_acquisition_process+0xe0>
    146e:	36 95       	lsr	r19
    1470:	27 95       	ror	r18
    1472:	0a 94       	dec	r0
    1474:	e2 f7       	brpl	.-8      	; 0x146e <qtm_acquisition_process+0xdc>
    1476:	21 83       	std	Z+1, r18	; 0x01
    1478:	32 83       	std	Z+2, r19	; 0x02
    147a:	a3 80       	ldd	r10, Z+3	; 0x03
    147c:	b4 80       	ldd	r11, Z+4	; 0x04
    147e:	21 15       	cp	r18, r1
    1480:	d2 e0       	ldi	r29, 0x02	; 2
    1482:	3d 07       	cpc	r19, r29
    1484:	20 f0       	brcs	.+8      	; 0x148e <qtm_acquisition_process+0xfc>
    1486:	2f 5f       	subi	r18, 0xFF	; 255
    1488:	31 40       	sbci	r19, 0x01	; 1
    148a:	91 e0       	ldi	r25, 0x01	; 1
    148c:	05 c0       	rjmp	.+10     	; 0x1498 <qtm_acquisition_process+0x106>
    148e:	a4 01       	movw	r20, r8
    1490:	42 1b       	sub	r20, r18
    1492:	53 0b       	sbc	r21, r19
    1494:	9a 01       	movw	r18, r20
    1496:	90 e0       	ldi	r25, 0x00	; 0
    1498:	e3 01       	movw	r28, r6
    149a:	5a 80       	ldd	r5, Y+2	; 0x02
    149c:	d0 e4       	ldi	r29, 0x40	; 64
    149e:	5d 12       	cpse	r5, r29
    14a0:	05 c0       	rjmp	.+10     	; 0x14ac <qtm_acquisition_process+0x11a>
    14a2:	36 95       	lsr	r19
    14a4:	27 95       	ror	r18
    14a6:	99 23       	and	r25, r25
    14a8:	19 f0       	breq	.+6      	; 0x14b0 <qtm_acquisition_process+0x11e>
    14aa:	09 c0       	rjmp	.+18     	; 0x14be <qtm_acquisition_process+0x12c>
    14ac:	99 23       	and	r25, r25
    14ae:	39 f0       	breq	.+14     	; 0x14be <qtm_acquisition_process+0x12c>
    14b0:	4f ef       	ldi	r20, 0xFF	; 255
    14b2:	a4 16       	cp	r10, r20
    14b4:	b4 06       	cpc	r11, r20
    14b6:	31 f4       	brne	.+12     	; 0x14c4 <qtm_acquisition_process+0x132>
    14b8:	40 82       	st	Z, r4
    14ba:	8e e0       	ldi	r24, 0x0E	; 14
    14bc:	07 c0       	rjmp	.+14     	; 0x14cc <qtm_acquisition_process+0x13a>
    14be:	77 24       	eor	r7, r7
    14c0:	73 94       	inc	r7
    14c2:	01 c0       	rjmp	.+2      	; 0x14c6 <qtm_acquisition_process+0x134>
    14c4:	71 2c       	mov	r7, r1
    14c6:	2a 30       	cpi	r18, 0x0A	; 10
    14c8:	31 05       	cpc	r19, r1
    14ca:	90 f4       	brcc	.+36     	; 0x14f0 <qtm_acquisition_process+0x15e>
    14cc:	14 96       	adiw	r26, 0x04	; 4
    14ce:	ed 91       	ld	r30, X+
    14d0:	fc 91       	ld	r31, X
    14d2:	15 97       	sbiw	r26, 0x05	; 5
    14d4:	e6 0f       	add	r30, r22
    14d6:	f7 1f       	adc	r31, r23
    14d8:	90 81       	ld	r25, Z
    14da:	97 ff       	sbrs	r25, 7
    14dc:	30 82       	st	Z, r3
    14de:	14 96       	adiw	r26, 0x04	; 4
    14e0:	ed 91       	ld	r30, X+
    14e2:	fc 91       	ld	r31, X
    14e4:	15 97       	sbiw	r26, 0x05	; 5
    14e6:	e6 0f       	add	r30, r22
    14e8:	f7 1f       	adc	r31, r23
    14ea:	a3 82       	std	Z+3, r10	; 0x03
    14ec:	b4 82       	std	Z+4, r11	; 0x04
    14ee:	a3 c0       	rjmp	.+326    	; 0x1636 <qtm_acquisition_process+0x2a4>
    14f0:	e5 01       	movw	r28, r10
    14f2:	cd 2f       	mov	r28, r29
    14f4:	dd 27       	eor	r29, r29
    14f6:	c2 95       	swap	r28
    14f8:	cf 70       	andi	r28, 0x0F	; 15
    14fa:	9c 2f       	mov	r25, r28
    14fc:	a5 01       	movw	r20, r10
    14fe:	44 27       	eor	r20, r20
    1500:	5f 70       	andi	r21, 0x0F	; 15
    1502:	65 2e       	mov	r6, r21
    1504:	a5 01       	movw	r20, r10
    1506:	40 7f       	andi	r20, 0xF0	; 240
    1508:	55 27       	eor	r21, r21
    150a:	52 95       	swap	r21
    150c:	42 95       	swap	r20
    150e:	4f 70       	andi	r20, 0x0F	; 15
    1510:	45 27       	eor	r20, r21
    1512:	5f 70       	andi	r21, 0x0F	; 15
    1514:	45 27       	eor	r20, r21
    1516:	5a 2d       	mov	r21, r10
    1518:	5f 70       	andi	r21, 0x0F	; 15
    151a:	a5 2e       	mov	r10, r21
    151c:	c4 30       	cpi	r28, 0x04	; 4
    151e:	30 f0       	brcs	.+12     	; 0x152c <qtm_acquisition_process+0x19a>
    1520:	93 70       	andi	r25, 0x03	; 3
    1522:	d6 95       	lsr	r29
    1524:	c7 95       	ror	r28
    1526:	d6 95       	lsr	r29
    1528:	c7 95       	ror	r28
    152a:	9c 0f       	add	r25, r28
    152c:	71 10       	cpse	r7, r1
    152e:	3c c0       	rjmp	.+120    	; 0x15a8 <qtm_acquisition_process+0x216>
    1530:	50 e8       	ldi	r21, 0x80	; 128
    1532:	55 0d       	add	r21, r5
    1534:	52 30       	cpi	r21, 0x02	; 2
    1536:	10 f4       	brcc	.+4      	; 0x153c <qtm_acquisition_process+0x1aa>
    1538:	56 e0       	ldi	r21, 0x06	; 6
    153a:	07 c0       	rjmp	.+14     	; 0x154a <qtm_acquisition_process+0x1b8>
    153c:	53 e0       	ldi	r21, 0x03	; 3
    153e:	05 c0       	rjmp	.+10     	; 0x154a <qtm_acquisition_process+0x1b8>
    1540:	95 17       	cp	r25, r21
    1542:	68 f4       	brcc	.+26     	; 0x155e <qtm_acquisition_process+0x1cc>
    1544:	9f 5f       	subi	r25, 0xFF	; 255
    1546:	2f 5c       	subi	r18, 0xCF	; 207
    1548:	31 09       	sbc	r19, r1
    154a:	20 3d       	cpi	r18, 0xD0	; 208
    154c:	31 05       	cpc	r19, r1
    154e:	c0 f7       	brcc	.-16     	; 0x1540 <qtm_acquisition_process+0x1ae>
    1550:	06 c0       	rjmp	.+12     	; 0x155e <qtm_acquisition_process+0x1cc>
    1552:	cf e0       	ldi	r28, 0x0F	; 15
    1554:	6c 16       	cp	r6, r28
    1556:	49 f0       	breq	.+18     	; 0x156a <qtm_acquisition_process+0x1d8>
    1558:	63 94       	inc	r6
    155a:	25 51       	subi	r18, 0x15	; 21
    155c:	31 09       	sbc	r19, r1
    155e:	26 31       	cpi	r18, 0x16	; 22
    1560:	31 05       	cpc	r19, r1
    1562:	b8 f7       	brcc	.-18     	; 0x1552 <qtm_acquisition_process+0x1c0>
    1564:	df e0       	ldi	r29, 0x0F	; 15
    1566:	6d 12       	cpse	r6, r29
    1568:	0e c0       	rjmp	.+28     	; 0x1586 <qtm_acquisition_process+0x1f4>
    156a:	95 17       	cp	r25, r21
    156c:	20 f4       	brcc	.+8      	; 0x1576 <qtm_acquisition_process+0x1e4>
    156e:	9f 5f       	subi	r25, 0xFF	; 255
    1570:	d5 e0       	ldi	r29, 0x05	; 5
    1572:	6d 2e       	mov	r6, r29
    1574:	08 c0       	rjmp	.+16     	; 0x1586 <qtm_acquisition_process+0x1f4>
    1576:	cf e0       	ldi	r28, 0x0F	; 15
    1578:	6c 2e       	mov	r6, r28
    157a:	05 c0       	rjmp	.+10     	; 0x1586 <qtm_acquisition_process+0x1f4>
    157c:	4f 30       	cpi	r20, 0x0F	; 15
    157e:	49 f0       	breq	.+18     	; 0x1592 <qtm_acquisition_process+0x200>
    1580:	4f 5f       	subi	r20, 0xFF	; 255
    1582:	22 50       	subi	r18, 0x02	; 2
    1584:	31 09       	sbc	r19, r1
    1586:	23 30       	cpi	r18, 0x03	; 3
    1588:	31 05       	cpc	r19, r1
    158a:	c0 f7       	brcc	.-16     	; 0x157c <qtm_acquisition_process+0x1ea>
    158c:	4f 30       	cpi	r20, 0x0F	; 15
    158e:	09 f0       	breq	.+2      	; 0x1592 <qtm_acquisition_process+0x200>
    1590:	65 c0       	rjmp	.+202    	; 0x165c <qtm_acquisition_process+0x2ca>
    1592:	4f e0       	ldi	r20, 0x0F	; 15
    1594:	64 16       	cp	r6, r20
    1596:	81 f1       	breq	.+96     	; 0x15f8 <qtm_acquisition_process+0x266>
    1598:	63 94       	inc	r6
    159a:	45 e0       	ldi	r20, 0x05	; 5
    159c:	5f c0       	rjmp	.+190    	; 0x165c <qtm_acquisition_process+0x2ca>
    159e:	99 23       	and	r25, r25
    15a0:	61 f0       	breq	.+24     	; 0x15ba <qtm_acquisition_process+0x228>
    15a2:	91 50       	subi	r25, 0x01	; 1
    15a4:	2f 5c       	subi	r18, 0xCF	; 207
    15a6:	31 09       	sbc	r19, r1
    15a8:	20 3d       	cpi	r18, 0xD0	; 208
    15aa:	31 05       	cpc	r19, r1
    15ac:	c0 f7       	brcc	.-16     	; 0x159e <qtm_acquisition_process+0x20c>
    15ae:	05 c0       	rjmp	.+10     	; 0x15ba <qtm_acquisition_process+0x228>
    15b0:	66 20       	and	r6, r6
    15b2:	41 f0       	breq	.+16     	; 0x15c4 <qtm_acquisition_process+0x232>
    15b4:	6a 94       	dec	r6
    15b6:	25 51       	subi	r18, 0x15	; 21
    15b8:	31 09       	sbc	r19, r1
    15ba:	26 31       	cpi	r18, 0x16	; 22
    15bc:	31 05       	cpc	r19, r1
    15be:	c0 f7       	brcc	.-16     	; 0x15b0 <qtm_acquisition_process+0x21e>
    15c0:	61 10       	cpse	r6, r1
    15c2:	0d c0       	rjmp	.+26     	; 0x15de <qtm_acquisition_process+0x24c>
    15c4:	99 23       	and	r25, r25
    15c6:	21 f0       	breq	.+8      	; 0x15d0 <qtm_acquisition_process+0x23e>
    15c8:	91 50       	subi	r25, 0x01	; 1
    15ca:	5a e0       	ldi	r21, 0x0A	; 10
    15cc:	65 2e       	mov	r6, r21
    15ce:	07 c0       	rjmp	.+14     	; 0x15de <qtm_acquisition_process+0x24c>
    15d0:	61 2c       	mov	r6, r1
    15d2:	05 c0       	rjmp	.+10     	; 0x15de <qtm_acquisition_process+0x24c>
    15d4:	44 23       	and	r20, r20
    15d6:	41 f0       	breq	.+16     	; 0x15e8 <qtm_acquisition_process+0x256>
    15d8:	41 50       	subi	r20, 0x01	; 1
    15da:	22 50       	subi	r18, 0x02	; 2
    15dc:	31 09       	sbc	r19, r1
    15de:	23 30       	cpi	r18, 0x03	; 3
    15e0:	31 05       	cpc	r19, r1
    15e2:	c0 f7       	brcc	.-16     	; 0x15d4 <qtm_acquisition_process+0x242>
    15e4:	41 11       	cpse	r20, r1
    15e6:	10 c0       	rjmp	.+32     	; 0x1608 <qtm_acquisition_process+0x276>
    15e8:	66 20       	and	r6, r6
    15ea:	e9 f1       	breq	.+122    	; 0x1666 <qtm_acquisition_process+0x2d4>
    15ec:	6a 94       	dec	r6
    15ee:	4a e0       	ldi	r20, 0x0A	; 10
    15f0:	23 30       	cpi	r18, 0x03	; 3
    15f2:	31 05       	cpc	r19, r1
    15f4:	c8 f6       	brcc	.-78     	; 0x15a8 <qtm_acquisition_process+0x216>
    15f6:	08 c0       	rjmp	.+16     	; 0x1608 <qtm_acquisition_process+0x276>
    15f8:	59 13       	cpse	r21, r25
    15fa:	2f c0       	rjmp	.+94     	; 0x165a <qtm_acquisition_process+0x2c8>
    15fc:	23 30       	cpi	r18, 0x03	; 3
    15fe:	31 05       	cpc	r19, r1
    1600:	40 f1       	brcs	.+80     	; 0x1652 <qtm_acquisition_process+0x2c0>
    1602:	4f e0       	ldi	r20, 0x0F	; 15
    1604:	a4 2e       	mov	r10, r20
    1606:	4f e0       	ldi	r20, 0x0F	; 15
    1608:	94 30       	cpi	r25, 0x04	; 4
    160a:	18 f0       	brcs	.+6      	; 0x1612 <qtm_acquisition_process+0x280>
    160c:	99 0f       	add	r25, r25
    160e:	99 0f       	add	r25, r25
    1610:	99 50       	subi	r25, 0x09	; 9
    1612:	c0 e1       	ldi	r28, 0x10	; 16
    1614:	4c 9f       	mul	r20, r28
    1616:	a0 01       	movw	r20, r0
    1618:	11 24       	eor	r1, r1
    161a:	56 29       	or	r21, r6
    161c:	4a 29       	or	r20, r10
    161e:	c9 2f       	mov	r28, r25
    1620:	d0 e0       	ldi	r29, 0x00	; 0
    1622:	dc 2f       	mov	r29, r28
    1624:	cc 27       	eor	r28, r28
    1626:	d2 95       	swap	r29
    1628:	d0 7f       	andi	r29, 0xF0	; 240
    162a:	4c 2b       	or	r20, r28
    162c:	5d 2b       	or	r21, r29
    162e:	43 83       	std	Z+3, r20	; 0x03
    1630:	54 83       	std	Z+4, r21	; 0x04
    1632:	01 c0       	rjmp	.+2      	; 0x1636 <qtm_acquisition_process+0x2a4>
    1634:	ff cf       	rjmp	.-2      	; 0x1634 <qtm_acquisition_process+0x2a2>
    1636:	df ef       	ldi	r29, 0xFF	; 255
    1638:	ed 1a       	sub	r14, r29
    163a:	fd 0a       	sbc	r15, r29
    163c:	6b 5f       	subi	r22, 0xFB	; 251
    163e:	7f 4f       	sbci	r23, 0xFF	; 255
    1640:	0a 5f       	subi	r16, 0xFA	; 250
    1642:	1f 4f       	sbci	r17, 0xFF	; 255
    1644:	d3 ce       	rjmp	.-602    	; 0x13ec <qtm_acquisition_process+0x5a>
    1646:	92 e0       	ldi	r25, 0x02	; 2
    1648:	90 93 8c 3e 	sts	0x3E8C, r25	; 0x803e8c <touch_seq_lib_state>
    164c:	0e c0       	rjmp	.+28     	; 0x166a <qtm_acquisition_process+0x2d8>
    164e:	83 e0       	ldi	r24, 0x03	; 3
    1650:	0c c0       	rjmp	.+24     	; 0x166a <qtm_acquisition_process+0x2d8>
    1652:	4f e0       	ldi	r20, 0x0F	; 15
    1654:	2f e0       	ldi	r18, 0x0F	; 15
    1656:	a2 2e       	mov	r10, r18
    1658:	d7 cf       	rjmp	.-82     	; 0x1608 <qtm_acquisition_process+0x276>
    165a:	4f e0       	ldi	r20, 0x0F	; 15
    165c:	23 30       	cpi	r18, 0x03	; 3
    165e:	31 05       	cpc	r19, r1
    1660:	08 f0       	brcs	.+2      	; 0x1664 <qtm_acquisition_process+0x2d2>
    1662:	73 cf       	rjmp	.-282    	; 0x154a <qtm_acquisition_process+0x1b8>
    1664:	d1 cf       	rjmp	.-94     	; 0x1608 <qtm_acquisition_process+0x276>
    1666:	40 e0       	ldi	r20, 0x00	; 0
    1668:	cf cf       	rjmp	.-98     	; 0x1608 <qtm_acquisition_process+0x276>
    166a:	df 91       	pop	r29
    166c:	cf 91       	pop	r28
    166e:	1f 91       	pop	r17
    1670:	0f 91       	pop	r16
    1672:	ff 90       	pop	r15
    1674:	ef 90       	pop	r14
    1676:	df 90       	pop	r13
    1678:	cf 90       	pop	r12
    167a:	bf 90       	pop	r11
    167c:	af 90       	pop	r10
    167e:	9f 90       	pop	r9
    1680:	8f 90       	pop	r8
    1682:	7f 90       	pop	r7
    1684:	6f 90       	pop	r6
    1686:	5f 90       	pop	r5
    1688:	4f 90       	pop	r4
    168a:	3f 90       	pop	r3
    168c:	08 95       	ret

0000168e <qtm_ptc_init_acquisition_module>:
    168e:	cf 93       	push	r28
    1690:	dc 01       	movw	r26, r24
    1692:	89 2b       	or	r24, r25
    1694:	79 f1       	breq	.+94     	; 0x16f4 <qtm_ptc_init_acquisition_module+0x66>
    1696:	ed 91       	ld	r30, X+
    1698:	fc 91       	ld	r31, X
    169a:	11 97       	sbiw	r26, 0x01	; 1
    169c:	60 81       	ld	r22, Z
    169e:	71 81       	ldd	r23, Z+1	; 0x01
    16a0:	40 e0       	ldi	r20, 0x00	; 0
    16a2:	50 e0       	ldi	r21, 0x00	; 0
    16a4:	20 e0       	ldi	r18, 0x00	; 0
    16a6:	30 e0       	ldi	r19, 0x00	; 0
    16a8:	90 e0       	ldi	r25, 0x00	; 0
    16aa:	26 17       	cp	r18, r22
    16ac:	37 07       	cpc	r19, r23
    16ae:	79 f0       	breq	.+30     	; 0x16ce <qtm_ptc_init_acquisition_module+0x40>
    16b0:	12 96       	adiw	r26, 0x02	; 2
    16b2:	ed 91       	ld	r30, X+
    16b4:	fc 91       	ld	r31, X
    16b6:	13 97       	sbiw	r26, 0x03	; 3
    16b8:	e4 0f       	add	r30, r20
    16ba:	f5 1f       	adc	r31, r21
    16bc:	c0 81       	ld	r28, Z
    16be:	81 81       	ldd	r24, Z+1	; 0x01
    16c0:	8c 2b       	or	r24, r28
    16c2:	98 2b       	or	r25, r24
    16c4:	2f 5f       	subi	r18, 0xFF	; 255
    16c6:	3f 4f       	sbci	r19, 0xFF	; 255
    16c8:	4a 5f       	subi	r20, 0xFA	; 250
    16ca:	5f 4f       	sbci	r21, 0xFF	; 255
    16cc:	ee cf       	rjmp	.-36     	; 0x16aa <qtm_ptc_init_acquisition_module+0x1c>
    16ce:	99 23       	and	r25, r25
    16d0:	99 f0       	breq	.+38     	; 0x16f8 <qtm_ptc_init_acquisition_module+0x6a>
    16d2:	80 91 8c 3e 	lds	r24, 0x3E8C	; 0x803e8c <touch_seq_lib_state>
    16d6:	81 11       	cpse	r24, r1
    16d8:	06 c0       	rjmp	.+12     	; 0x16e6 <qtm_ptc_init_acquisition_module+0x58>
    16da:	90 93 22 06 	sts	0x0622, r25	; 0x800622 <gain_setting_int_cap+0x7f69f8>
    16de:	81 e0       	ldi	r24, 0x01	; 1
    16e0:	80 93 8c 3e 	sts	0x3E8C, r24	; 0x803e8c <touch_seq_lib_state>
    16e4:	05 c0       	rjmp	.+10     	; 0x16f0 <qtm_ptc_init_acquisition_module+0x62>
    16e6:	80 91 22 06 	lds	r24, 0x0622	; 0x800622 <gain_setting_int_cap+0x7f69f8>
    16ea:	98 2b       	or	r25, r24
    16ec:	90 93 22 06 	sts	0x0622, r25	; 0x800622 <gain_setting_int_cap+0x7f69f8>
    16f0:	80 e0       	ldi	r24, 0x00	; 0
    16f2:	03 c0       	rjmp	.+6      	; 0x16fa <qtm_ptc_init_acquisition_module+0x6c>
    16f4:	8b e0       	ldi	r24, 0x0B	; 11
    16f6:	01 c0       	rjmp	.+2      	; 0x16fa <qtm_ptc_init_acquisition_module+0x6c>
    16f8:	82 e0       	ldi	r24, 0x02	; 2
    16fa:	cf 91       	pop	r28
    16fc:	08 95       	ret

000016fe <qtm_ptc_qtlib_assign_signal_memory>:
    16fe:	00 97       	sbiw	r24, 0x00	; 0
    1700:	31 f0       	breq	.+12     	; 0x170e <qtm_ptc_qtlib_assign_signal_memory+0x10>
    1702:	80 93 e6 3e 	sts	0x3EE6, r24	; 0x803ee6 <qtm_raw_data_measurements_ptr>
    1706:	90 93 e7 3e 	sts	0x3EE7, r25	; 0x803ee7 <qtm_raw_data_measurements_ptr+0x1>
    170a:	80 e0       	ldi	r24, 0x00	; 0
    170c:	08 95       	ret
    170e:	8b e0       	ldi	r24, 0x0B	; 11
    1710:	08 95       	ret

00001712 <qtm_ptc_start_measurement_seq>:
    1712:	61 15       	cp	r22, r1
    1714:	71 05       	cpc	r23, r1
    1716:	91 f1       	breq	.+100    	; 0x177c <qtm_ptc_start_measurement_seq+0x6a>
    1718:	00 97       	sbiw	r24, 0x00	; 0
    171a:	81 f1       	breq	.+96     	; 0x177c <qtm_ptc_start_measurement_seq+0x6a>
    171c:	20 91 8c 3e 	lds	r18, 0x3E8C	; 0x803e8c <touch_seq_lib_state>
    1720:	22 23       	and	r18, r18
    1722:	71 f1       	breq	.+92     	; 0x1780 <qtm_ptc_start_measurement_seq+0x6e>
    1724:	24 30       	cpi	r18, 0x04	; 4
    1726:	71 f1       	breq	.+92     	; 0x1784 <qtm_ptc_start_measurement_seq+0x72>
    1728:	80 93 e4 3e 	sts	0x3EE4, r24	; 0x803ee4 <qtm_acquisition_control_working_set_ptr>
    172c:	90 93 e5 3e 	sts	0x3EE5, r25	; 0x803ee5 <qtm_acquisition_control_working_set_ptr+0x1>
    1730:	60 93 8a 3e 	sts	0x3E8A, r22	; 0x803e8a <ptc_seq_measure_complete_pointer>
    1734:	70 93 8b 3e 	sts	0x3E8B, r23	; 0x803e8b <ptc_seq_measure_complete_pointer+0x1>
    1738:	20 ec       	ldi	r18, 0xC0	; 192
    173a:	20 93 18 06 	sts	0x0618, r18	; 0x800618 <gain_setting_int_cap+0x7f69ee>
    173e:	dc 01       	movw	r26, r24
    1740:	ed 91       	ld	r30, X+
    1742:	fc 91       	ld	r31, X
    1744:	22 81       	ldd	r18, Z+2	; 0x02
    1746:	20 34       	cpi	r18, 0x40	; 64
    1748:	21 f4       	brne	.+8      	; 0x1752 <qtm_ptc_start_measurement_seq+0x40>
    174a:	20 91 18 06 	lds	r18, 0x0618	; 0x800618 <gain_setting_int_cap+0x7f69ee>
    174e:	20 62       	ori	r18, 0x20	; 32
    1750:	05 c0       	rjmp	.+10     	; 0x175c <qtm_ptc_start_measurement_seq+0x4a>
    1752:	20 38       	cpi	r18, 0x80	; 128
    1754:	41 f4       	brne	.+16     	; 0x1766 <qtm_ptc_start_measurement_seq+0x54>
    1756:	20 91 18 06 	lds	r18, 0x0618	; 0x800618 <gain_setting_int_cap+0x7f69ee>
    175a:	28 62       	ori	r18, 0x28	; 40
    175c:	20 93 18 06 	sts	0x0618, r18	; 0x800618 <gain_setting_int_cap+0x7f69ee>
    1760:	10 92 1e 06 	sts	0x061E, r1	; 0x80061e <gain_setting_int_cap+0x7f69f4>
    1764:	13 c0       	rjmp	.+38     	; 0x178c <qtm_ptc_start_measurement_seq+0x7a>
    1766:	21 38       	cpi	r18, 0x81	; 129
    1768:	79 f4       	brne	.+30     	; 0x1788 <qtm_ptc_start_measurement_seq+0x76>
    176a:	20 91 18 06 	lds	r18, 0x0618	; 0x800618 <gain_setting_int_cap+0x7f69ee>
    176e:	28 62       	ori	r18, 0x28	; 40
    1770:	20 93 18 06 	sts	0x0618, r18	; 0x800618 <gain_setting_int_cap+0x7f69ee>
    1774:	26 e8       	ldi	r18, 0x86	; 134
    1776:	20 93 1e 06 	sts	0x061E, r18	; 0x80061e <gain_setting_int_cap+0x7f69f4>
    177a:	08 c0       	rjmp	.+16     	; 0x178c <qtm_ptc_start_measurement_seq+0x7a>
    177c:	8b e0       	ldi	r24, 0x0B	; 11
    177e:	08 95       	ret
    1780:	83 e0       	ldi	r24, 0x03	; 3
    1782:	08 95       	ret
    1784:	81 e0       	ldi	r24, 0x01	; 1
    1786:	08 95       	ret
    1788:	82 e0       	ldi	r24, 0x02	; 2
    178a:	08 95       	ret
    178c:	10 92 00 06 	sts	0x0600, r1	; 0x800600 <gain_setting_int_cap+0x7f69d6>
    1790:	dc 01       	movw	r26, r24
    1792:	ed 91       	ld	r30, X+
    1794:	fc 91       	ld	r31, X
    1796:	84 81       	ldd	r24, Z+4	; 0x04
    1798:	80 31       	cpi	r24, 0x10	; 16
    179a:	08 f0       	brcs	.+2      	; 0x179e <qtm_ptc_start_measurement_seq+0x8c>
    179c:	80 e1       	ldi	r24, 0x10	; 16
    179e:	80 93 03 06 	sts	0x0603, r24	; 0x800603 <gain_setting_int_cap+0x7f69d9>
    17a2:	81 e0       	ldi	r24, 0x01	; 1
    17a4:	80 93 0b 06 	sts	0x060B, r24	; 0x80060b <gain_setting_int_cap+0x7f69e1>
    17a8:	80 93 0a 06 	sts	0x060A, r24	; 0x80060a <gain_setting_int_cap+0x7f69e0>
    17ac:	80 93 67 3e 	sts	0x3E67, r24	; 0x803e67 <qtm_which_mode_current>
    17b0:	10 92 8d 3e 	sts	0x3E8D, r1	; 0x803e8d <current_measure_channel>
    17b4:	10 92 8e 3e 	sts	0x3E8E, r1	; 0x803e8e <current_measure_channel+0x1>
    17b8:	35 dd       	rcall	.-1430   	; 0x1224 <select_next_channel_to_measure>
    17ba:	81 11       	cpse	r24, r1
    17bc:	0a c0       	rjmp	.+20     	; 0x17d2 <qtm_ptc_start_measurement_seq+0xc0>
    17be:	84 e0       	ldi	r24, 0x04	; 4
    17c0:	80 93 8c 3e 	sts	0x3E8C, r24	; 0x803e8c <touch_seq_lib_state>
    17c4:	80 91 8d 3e 	lds	r24, 0x3E8D	; 0x803e8d <current_measure_channel>
    17c8:	90 91 8e 3e 	lds	r25, 0x3E8E	; 0x803e8e <current_measure_channel+0x1>
    17cc:	5e dd       	rcall	.-1348   	; 0x128a <qtm_measure_node>
    17ce:	80 e0       	ldi	r24, 0x00	; 0
    17d0:	08 95       	ret
    17d2:	82 e0       	ldi	r24, 0x02	; 2
    17d4:	80 93 8c 3e 	sts	0x3E8C, r24	; 0x803e8c <touch_seq_lib_state>
    17d8:	08 95       	ret

000017da <qtm_enable_sensor_node>:
    17da:	00 97       	sbiw	r24, 0x00	; 0
    17dc:	c9 f0       	breq	.+50     	; 0x1810 <qtm_enable_sensor_node+0x36>
    17de:	dc 01       	movw	r26, r24
    17e0:	ed 91       	ld	r30, X+
    17e2:	fc 91       	ld	r31, X
    17e4:	11 97       	sbiw	r26, 0x01	; 1
    17e6:	20 81       	ld	r18, Z
    17e8:	31 81       	ldd	r19, Z+1	; 0x01
    17ea:	26 17       	cp	r18, r22
    17ec:	37 07       	cpc	r19, r23
    17ee:	90 f0       	brcs	.+36     	; 0x1814 <qtm_enable_sensor_node+0x3a>
    17f0:	45 e0       	ldi	r20, 0x05	; 5
    17f2:	46 9f       	mul	r20, r22
    17f4:	90 01       	movw	r18, r0
    17f6:	47 9f       	mul	r20, r23
    17f8:	30 0d       	add	r19, r0
    17fa:	11 24       	eor	r1, r1
    17fc:	14 96       	adiw	r26, 0x04	; 4
    17fe:	ed 91       	ld	r30, X+
    1800:	fc 91       	ld	r31, X
    1802:	15 97       	sbiw	r26, 0x05	; 5
    1804:	e2 0f       	add	r30, r18
    1806:	f3 1f       	adc	r31, r19
    1808:	81 e0       	ldi	r24, 0x01	; 1
    180a:	80 83       	st	Z, r24
    180c:	80 e0       	ldi	r24, 0x00	; 0
    180e:	08 95       	ret
    1810:	8b e0       	ldi	r24, 0x0B	; 11
    1812:	08 95       	ret
    1814:	82 e0       	ldi	r24, 0x02	; 2
    1816:	08 95       	ret

00001818 <qtm_calibrate_sensor_node>:
    1818:	fc 01       	movw	r30, r24
    181a:	89 2b       	or	r24, r25
    181c:	d1 f1       	breq	.+116    	; 0x1892 <qtm_calibrate_sensor_node+0x7a>
    181e:	a0 81       	ld	r26, Z
    1820:	b1 81       	ldd	r27, Z+1	; 0x01
    1822:	8d 91       	ld	r24, X+
    1824:	9c 91       	ld	r25, X
    1826:	11 97       	sbiw	r26, 0x01	; 1
    1828:	86 17       	cp	r24, r22
    182a:	97 07       	cpc	r25, r23
    182c:	a0 f1       	brcs	.+104    	; 0x1896 <qtm_calibrate_sensor_node+0x7e>
    182e:	12 96       	adiw	r26, 0x02	; 2
    1830:	9c 91       	ld	r25, X
    1832:	04 80       	ldd	r0, Z+4	; 0x04
    1834:	f5 81       	ldd	r31, Z+5	; 0x05
    1836:	e0 2d       	mov	r30, r0
    1838:	90 34       	cpi	r25, 0x40	; 64
    183a:	59 f4       	brne	.+22     	; 0x1852 <qtm_calibrate_sensor_node+0x3a>
    183c:	85 e0       	ldi	r24, 0x05	; 5
    183e:	86 9f       	mul	r24, r22
    1840:	d0 01       	movw	r26, r0
    1842:	87 9f       	mul	r24, r23
    1844:	b0 0d       	add	r27, r0
    1846:	11 24       	eor	r1, r1
    1848:	ae 0f       	add	r26, r30
    184a:	bf 1f       	adc	r27, r31
    184c:	84 e3       	ldi	r24, 0x34	; 52
    184e:	92 e0       	ldi	r25, 0x02	; 2
    1850:	0d c0       	rjmp	.+26     	; 0x186c <qtm_calibrate_sensor_node+0x54>
    1852:	90 58       	subi	r25, 0x80	; 128
    1854:	92 30       	cpi	r25, 0x02	; 2
    1856:	80 f4       	brcc	.+32     	; 0x1878 <qtm_calibrate_sensor_node+0x60>
    1858:	85 e0       	ldi	r24, 0x05	; 5
    185a:	86 9f       	mul	r24, r22
    185c:	d0 01       	movw	r26, r0
    185e:	87 9f       	mul	r24, r23
    1860:	b0 0d       	add	r27, r0
    1862:	11 24       	eor	r1, r1
    1864:	ae 0f       	add	r26, r30
    1866:	bf 1f       	adc	r27, r31
    1868:	87 e6       	ldi	r24, 0x67	; 103
    186a:	95 e0       	ldi	r25, 0x05	; 5
    186c:	13 96       	adiw	r26, 0x03	; 3
    186e:	8d 93       	st	X+, r24
    1870:	9c 93       	st	X, r25
    1872:	14 97       	sbiw	r26, 0x04	; 4
    1874:	80 e0       	ldi	r24, 0x00	; 0
    1876:	01 c0       	rjmp	.+2      	; 0x187a <qtm_calibrate_sensor_node+0x62>
    1878:	82 e0       	ldi	r24, 0x02	; 2
    187a:	95 e0       	ldi	r25, 0x05	; 5
    187c:	96 9f       	mul	r25, r22
    187e:	90 01       	movw	r18, r0
    1880:	97 9f       	mul	r25, r23
    1882:	30 0d       	add	r19, r0
    1884:	11 24       	eor	r1, r1
    1886:	e2 0f       	add	r30, r18
    1888:	f3 1f       	adc	r31, r19
    188a:	90 81       	ld	r25, Z
    188c:	92 60       	ori	r25, 0x02	; 2
    188e:	90 83       	st	Z, r25
    1890:	08 95       	ret
    1892:	8b e0       	ldi	r24, 0x0B	; 11
    1894:	08 95       	ret
    1896:	82 e0       	ldi	r24, 0x02	; 2
    1898:	08 95       	ret

0000189a <qtm_t81x_ptc_handler_eoc>:
    189a:	10 92 00 06 	sts	0x0600, r1	; 0x800600 <gain_setting_int_cap+0x7f69d6>
    189e:	40 91 10 06 	lds	r20, 0x0610	; 0x800610 <gain_setting_int_cap+0x7f69e6>
    18a2:	50 91 11 06 	lds	r21, 0x0611	; 0x800611 <gain_setting_int_cap+0x7f69e7>
    18a6:	80 91 8d 3e 	lds	r24, 0x3E8D	; 0x803e8d <current_measure_channel>
    18aa:	90 91 8e 3e 	lds	r25, 0x3E8E	; 0x803e8e <current_measure_channel+0x1>
    18ae:	9c 01       	movw	r18, r24
    18b0:	22 0f       	add	r18, r18
    18b2:	33 1f       	adc	r19, r19
    18b4:	e0 91 e6 3e 	lds	r30, 0x3EE6	; 0x803ee6 <qtm_raw_data_measurements_ptr>
    18b8:	f0 91 e7 3e 	lds	r31, 0x3EE7	; 0x803ee7 <qtm_raw_data_measurements_ptr+0x1>
    18bc:	e2 0f       	add	r30, r18
    18be:	f3 1f       	adc	r31, r19
    18c0:	40 83       	st	Z, r20
    18c2:	51 83       	std	Z+1, r21	; 0x01
    18c4:	01 96       	adiw	r24, 0x01	; 1
    18c6:	80 93 8d 3e 	sts	0x3E8D, r24	; 0x803e8d <current_measure_channel>
    18ca:	90 93 8e 3e 	sts	0x3E8E, r25	; 0x803e8e <current_measure_channel+0x1>
    18ce:	aa dc       	rcall	.-1708   	; 0x1224 <select_next_channel_to_measure>
    18d0:	81 11       	cpse	r24, r1
    18d2:	08 c0       	rjmp	.+16     	; 0x18e4 <qtm_t81x_ptc_handler_eoc+0x4a>
    18d4:	84 e0       	ldi	r24, 0x04	; 4
    18d6:	80 93 8c 3e 	sts	0x3E8C, r24	; 0x803e8c <touch_seq_lib_state>
    18da:	80 91 8d 3e 	lds	r24, 0x3E8D	; 0x803e8d <current_measure_channel>
    18de:	90 91 8e 3e 	lds	r25, 0x3E8E	; 0x803e8e <current_measure_channel+0x1>
    18e2:	d3 cc       	rjmp	.-1626   	; 0x128a <qtm_measure_node>
    18e4:	e0 91 8a 3e 	lds	r30, 0x3E8A	; 0x803e8a <ptc_seq_measure_complete_pointer>
    18e8:	f0 91 8b 3e 	lds	r31, 0x3E8B	; 0x803e8b <ptc_seq_measure_complete_pointer+0x1>
    18ec:	09 94       	ijmp

000018ee <__divsf3>:
    18ee:	0e 94 8b 0c 	call	0x1916	; 0x1916 <__divsf3x>
    18f2:	0c 94 6c 0d 	jmp	0x1ad8	; 0x1ad8 <__fp_round>
    18f6:	0e 94 65 0d 	call	0x1aca	; 0x1aca <__fp_pscB>
    18fa:	58 f0       	brcs	.+22     	; 0x1912 <__divsf3+0x24>
    18fc:	0e 94 5e 0d 	call	0x1abc	; 0x1abc <__fp_pscA>
    1900:	40 f0       	brcs	.+16     	; 0x1912 <__divsf3+0x24>
    1902:	29 f4       	brne	.+10     	; 0x190e <__divsf3+0x20>
    1904:	5f 3f       	cpi	r21, 0xFF	; 255
    1906:	29 f0       	breq	.+10     	; 0x1912 <__divsf3+0x24>
    1908:	0c 94 55 0d 	jmp	0x1aaa	; 0x1aaa <__fp_inf>
    190c:	51 11       	cpse	r21, r1
    190e:	0c 94 a0 0d 	jmp	0x1b40	; 0x1b40 <__fp_szero>
    1912:	0c 94 5b 0d 	jmp	0x1ab6	; 0x1ab6 <__fp_nan>

00001916 <__divsf3x>:
    1916:	0e 94 7d 0d 	call	0x1afa	; 0x1afa <__fp_split3>
    191a:	68 f3       	brcs	.-38     	; 0x18f6 <__divsf3+0x8>

0000191c <__divsf3_pse>:
    191c:	99 23       	and	r25, r25
    191e:	b1 f3       	breq	.-20     	; 0x190c <__divsf3+0x1e>
    1920:	55 23       	and	r21, r21
    1922:	91 f3       	breq	.-28     	; 0x1908 <__divsf3+0x1a>
    1924:	95 1b       	sub	r25, r21
    1926:	55 0b       	sbc	r21, r21
    1928:	bb 27       	eor	r27, r27
    192a:	aa 27       	eor	r26, r26
    192c:	62 17       	cp	r22, r18
    192e:	73 07       	cpc	r23, r19
    1930:	84 07       	cpc	r24, r20
    1932:	38 f0       	brcs	.+14     	; 0x1942 <__divsf3_pse+0x26>
    1934:	9f 5f       	subi	r25, 0xFF	; 255
    1936:	5f 4f       	sbci	r21, 0xFF	; 255
    1938:	22 0f       	add	r18, r18
    193a:	33 1f       	adc	r19, r19
    193c:	44 1f       	adc	r20, r20
    193e:	aa 1f       	adc	r26, r26
    1940:	a9 f3       	breq	.-22     	; 0x192c <__divsf3_pse+0x10>
    1942:	35 d0       	rcall	.+106    	; 0x19ae <__divsf3_pse+0x92>
    1944:	0e 2e       	mov	r0, r30
    1946:	3a f0       	brmi	.+14     	; 0x1956 <__divsf3_pse+0x3a>
    1948:	e0 e8       	ldi	r30, 0x80	; 128
    194a:	32 d0       	rcall	.+100    	; 0x19b0 <__divsf3_pse+0x94>
    194c:	91 50       	subi	r25, 0x01	; 1
    194e:	50 40       	sbci	r21, 0x00	; 0
    1950:	e6 95       	lsr	r30
    1952:	00 1c       	adc	r0, r0
    1954:	ca f7       	brpl	.-14     	; 0x1948 <__divsf3_pse+0x2c>
    1956:	2b d0       	rcall	.+86     	; 0x19ae <__divsf3_pse+0x92>
    1958:	fe 2f       	mov	r31, r30
    195a:	29 d0       	rcall	.+82     	; 0x19ae <__divsf3_pse+0x92>
    195c:	66 0f       	add	r22, r22
    195e:	77 1f       	adc	r23, r23
    1960:	88 1f       	adc	r24, r24
    1962:	bb 1f       	adc	r27, r27
    1964:	26 17       	cp	r18, r22
    1966:	37 07       	cpc	r19, r23
    1968:	48 07       	cpc	r20, r24
    196a:	ab 07       	cpc	r26, r27
    196c:	b0 e8       	ldi	r27, 0x80	; 128
    196e:	09 f0       	breq	.+2      	; 0x1972 <__divsf3_pse+0x56>
    1970:	bb 0b       	sbc	r27, r27
    1972:	80 2d       	mov	r24, r0
    1974:	bf 01       	movw	r22, r30
    1976:	ff 27       	eor	r31, r31
    1978:	93 58       	subi	r25, 0x83	; 131
    197a:	5f 4f       	sbci	r21, 0xFF	; 255
    197c:	3a f0       	brmi	.+14     	; 0x198c <__divsf3_pse+0x70>
    197e:	9e 3f       	cpi	r25, 0xFE	; 254
    1980:	51 05       	cpc	r21, r1
    1982:	78 f0       	brcs	.+30     	; 0x19a2 <__divsf3_pse+0x86>
    1984:	0c 94 55 0d 	jmp	0x1aaa	; 0x1aaa <__fp_inf>
    1988:	0c 94 a0 0d 	jmp	0x1b40	; 0x1b40 <__fp_szero>
    198c:	5f 3f       	cpi	r21, 0xFF	; 255
    198e:	e4 f3       	brlt	.-8      	; 0x1988 <__divsf3_pse+0x6c>
    1990:	98 3e       	cpi	r25, 0xE8	; 232
    1992:	d4 f3       	brlt	.-12     	; 0x1988 <__divsf3_pse+0x6c>
    1994:	86 95       	lsr	r24
    1996:	77 95       	ror	r23
    1998:	67 95       	ror	r22
    199a:	b7 95       	ror	r27
    199c:	f7 95       	ror	r31
    199e:	9f 5f       	subi	r25, 0xFF	; 255
    19a0:	c9 f7       	brne	.-14     	; 0x1994 <__divsf3_pse+0x78>
    19a2:	88 0f       	add	r24, r24
    19a4:	91 1d       	adc	r25, r1
    19a6:	96 95       	lsr	r25
    19a8:	87 95       	ror	r24
    19aa:	97 f9       	bld	r25, 7
    19ac:	08 95       	ret
    19ae:	e1 e0       	ldi	r30, 0x01	; 1
    19b0:	66 0f       	add	r22, r22
    19b2:	77 1f       	adc	r23, r23
    19b4:	88 1f       	adc	r24, r24
    19b6:	bb 1f       	adc	r27, r27
    19b8:	62 17       	cp	r22, r18
    19ba:	73 07       	cpc	r23, r19
    19bc:	84 07       	cpc	r24, r20
    19be:	ba 07       	cpc	r27, r26
    19c0:	20 f0       	brcs	.+8      	; 0x19ca <__divsf3_pse+0xae>
    19c2:	62 1b       	sub	r22, r18
    19c4:	73 0b       	sbc	r23, r19
    19c6:	84 0b       	sbc	r24, r20
    19c8:	ba 0b       	sbc	r27, r26
    19ca:	ee 1f       	adc	r30, r30
    19cc:	88 f7       	brcc	.-30     	; 0x19b0 <__divsf3_pse+0x94>
    19ce:	e0 95       	com	r30
    19d0:	08 95       	ret

000019d2 <__fixunssfsi>:
    19d2:	0e 94 85 0d 	call	0x1b0a	; 0x1b0a <__fp_splitA>
    19d6:	88 f0       	brcs	.+34     	; 0x19fa <__fixunssfsi+0x28>
    19d8:	9f 57       	subi	r25, 0x7F	; 127
    19da:	98 f0       	brcs	.+38     	; 0x1a02 <__fixunssfsi+0x30>
    19dc:	b9 2f       	mov	r27, r25
    19de:	99 27       	eor	r25, r25
    19e0:	b7 51       	subi	r27, 0x17	; 23
    19e2:	b0 f0       	brcs	.+44     	; 0x1a10 <__fixunssfsi+0x3e>
    19e4:	e1 f0       	breq	.+56     	; 0x1a1e <__fixunssfsi+0x4c>
    19e6:	66 0f       	add	r22, r22
    19e8:	77 1f       	adc	r23, r23
    19ea:	88 1f       	adc	r24, r24
    19ec:	99 1f       	adc	r25, r25
    19ee:	1a f0       	brmi	.+6      	; 0x19f6 <__fixunssfsi+0x24>
    19f0:	ba 95       	dec	r27
    19f2:	c9 f7       	brne	.-14     	; 0x19e6 <__fixunssfsi+0x14>
    19f4:	14 c0       	rjmp	.+40     	; 0x1a1e <__fixunssfsi+0x4c>
    19f6:	b1 30       	cpi	r27, 0x01	; 1
    19f8:	91 f0       	breq	.+36     	; 0x1a1e <__fixunssfsi+0x4c>
    19fa:	0e 94 9f 0d 	call	0x1b3e	; 0x1b3e <__fp_zero>
    19fe:	b1 e0       	ldi	r27, 0x01	; 1
    1a00:	08 95       	ret
    1a02:	0c 94 9f 0d 	jmp	0x1b3e	; 0x1b3e <__fp_zero>
    1a06:	67 2f       	mov	r22, r23
    1a08:	78 2f       	mov	r23, r24
    1a0a:	88 27       	eor	r24, r24
    1a0c:	b8 5f       	subi	r27, 0xF8	; 248
    1a0e:	39 f0       	breq	.+14     	; 0x1a1e <__fixunssfsi+0x4c>
    1a10:	b9 3f       	cpi	r27, 0xF9	; 249
    1a12:	cc f3       	brlt	.-14     	; 0x1a06 <__fixunssfsi+0x34>
    1a14:	86 95       	lsr	r24
    1a16:	77 95       	ror	r23
    1a18:	67 95       	ror	r22
    1a1a:	b3 95       	inc	r27
    1a1c:	d9 f7       	brne	.-10     	; 0x1a14 <__fixunssfsi+0x42>
    1a1e:	3e f4       	brtc	.+14     	; 0x1a2e <__fixunssfsi+0x5c>
    1a20:	90 95       	com	r25
    1a22:	80 95       	com	r24
    1a24:	70 95       	com	r23
    1a26:	61 95       	neg	r22
    1a28:	7f 4f       	sbci	r23, 0xFF	; 255
    1a2a:	8f 4f       	sbci	r24, 0xFF	; 255
    1a2c:	9f 4f       	sbci	r25, 0xFF	; 255
    1a2e:	08 95       	ret

00001a30 <__floatunsisf>:
    1a30:	e8 94       	clt
    1a32:	09 c0       	rjmp	.+18     	; 0x1a46 <__floatsisf+0x12>

00001a34 <__floatsisf>:
    1a34:	97 fb       	bst	r25, 7
    1a36:	3e f4       	brtc	.+14     	; 0x1a46 <__floatsisf+0x12>
    1a38:	90 95       	com	r25
    1a3a:	80 95       	com	r24
    1a3c:	70 95       	com	r23
    1a3e:	61 95       	neg	r22
    1a40:	7f 4f       	sbci	r23, 0xFF	; 255
    1a42:	8f 4f       	sbci	r24, 0xFF	; 255
    1a44:	9f 4f       	sbci	r25, 0xFF	; 255
    1a46:	99 23       	and	r25, r25
    1a48:	a9 f0       	breq	.+42     	; 0x1a74 <__floatsisf+0x40>
    1a4a:	f9 2f       	mov	r31, r25
    1a4c:	96 e9       	ldi	r25, 0x96	; 150
    1a4e:	bb 27       	eor	r27, r27
    1a50:	93 95       	inc	r25
    1a52:	f6 95       	lsr	r31
    1a54:	87 95       	ror	r24
    1a56:	77 95       	ror	r23
    1a58:	67 95       	ror	r22
    1a5a:	b7 95       	ror	r27
    1a5c:	f1 11       	cpse	r31, r1
    1a5e:	f8 cf       	rjmp	.-16     	; 0x1a50 <__floatsisf+0x1c>
    1a60:	fa f4       	brpl	.+62     	; 0x1aa0 <__floatsisf+0x6c>
    1a62:	bb 0f       	add	r27, r27
    1a64:	11 f4       	brne	.+4      	; 0x1a6a <__floatsisf+0x36>
    1a66:	60 ff       	sbrs	r22, 0
    1a68:	1b c0       	rjmp	.+54     	; 0x1aa0 <__floatsisf+0x6c>
    1a6a:	6f 5f       	subi	r22, 0xFF	; 255
    1a6c:	7f 4f       	sbci	r23, 0xFF	; 255
    1a6e:	8f 4f       	sbci	r24, 0xFF	; 255
    1a70:	9f 4f       	sbci	r25, 0xFF	; 255
    1a72:	16 c0       	rjmp	.+44     	; 0x1aa0 <__floatsisf+0x6c>
    1a74:	88 23       	and	r24, r24
    1a76:	11 f0       	breq	.+4      	; 0x1a7c <__floatsisf+0x48>
    1a78:	96 e9       	ldi	r25, 0x96	; 150
    1a7a:	11 c0       	rjmp	.+34     	; 0x1a9e <__floatsisf+0x6a>
    1a7c:	77 23       	and	r23, r23
    1a7e:	21 f0       	breq	.+8      	; 0x1a88 <__floatsisf+0x54>
    1a80:	9e e8       	ldi	r25, 0x8E	; 142
    1a82:	87 2f       	mov	r24, r23
    1a84:	76 2f       	mov	r23, r22
    1a86:	05 c0       	rjmp	.+10     	; 0x1a92 <__floatsisf+0x5e>
    1a88:	66 23       	and	r22, r22
    1a8a:	71 f0       	breq	.+28     	; 0x1aa8 <__floatsisf+0x74>
    1a8c:	96 e8       	ldi	r25, 0x86	; 134
    1a8e:	86 2f       	mov	r24, r22
    1a90:	70 e0       	ldi	r23, 0x00	; 0
    1a92:	60 e0       	ldi	r22, 0x00	; 0
    1a94:	2a f0       	brmi	.+10     	; 0x1aa0 <__floatsisf+0x6c>
    1a96:	9a 95       	dec	r25
    1a98:	66 0f       	add	r22, r22
    1a9a:	77 1f       	adc	r23, r23
    1a9c:	88 1f       	adc	r24, r24
    1a9e:	da f7       	brpl	.-10     	; 0x1a96 <__floatsisf+0x62>
    1aa0:	88 0f       	add	r24, r24
    1aa2:	96 95       	lsr	r25
    1aa4:	87 95       	ror	r24
    1aa6:	97 f9       	bld	r25, 7
    1aa8:	08 95       	ret

00001aaa <__fp_inf>:
    1aaa:	97 f9       	bld	r25, 7
    1aac:	9f 67       	ori	r25, 0x7F	; 127
    1aae:	80 e8       	ldi	r24, 0x80	; 128
    1ab0:	70 e0       	ldi	r23, 0x00	; 0
    1ab2:	60 e0       	ldi	r22, 0x00	; 0
    1ab4:	08 95       	ret

00001ab6 <__fp_nan>:
    1ab6:	9f ef       	ldi	r25, 0xFF	; 255
    1ab8:	80 ec       	ldi	r24, 0xC0	; 192
    1aba:	08 95       	ret

00001abc <__fp_pscA>:
    1abc:	00 24       	eor	r0, r0
    1abe:	0a 94       	dec	r0
    1ac0:	16 16       	cp	r1, r22
    1ac2:	17 06       	cpc	r1, r23
    1ac4:	18 06       	cpc	r1, r24
    1ac6:	09 06       	cpc	r0, r25
    1ac8:	08 95       	ret

00001aca <__fp_pscB>:
    1aca:	00 24       	eor	r0, r0
    1acc:	0a 94       	dec	r0
    1ace:	12 16       	cp	r1, r18
    1ad0:	13 06       	cpc	r1, r19
    1ad2:	14 06       	cpc	r1, r20
    1ad4:	05 06       	cpc	r0, r21
    1ad6:	08 95       	ret

00001ad8 <__fp_round>:
    1ad8:	09 2e       	mov	r0, r25
    1ada:	03 94       	inc	r0
    1adc:	00 0c       	add	r0, r0
    1ade:	11 f4       	brne	.+4      	; 0x1ae4 <__fp_round+0xc>
    1ae0:	88 23       	and	r24, r24
    1ae2:	52 f0       	brmi	.+20     	; 0x1af8 <__fp_round+0x20>
    1ae4:	bb 0f       	add	r27, r27
    1ae6:	40 f4       	brcc	.+16     	; 0x1af8 <__fp_round+0x20>
    1ae8:	bf 2b       	or	r27, r31
    1aea:	11 f4       	brne	.+4      	; 0x1af0 <__fp_round+0x18>
    1aec:	60 ff       	sbrs	r22, 0
    1aee:	04 c0       	rjmp	.+8      	; 0x1af8 <__fp_round+0x20>
    1af0:	6f 5f       	subi	r22, 0xFF	; 255
    1af2:	7f 4f       	sbci	r23, 0xFF	; 255
    1af4:	8f 4f       	sbci	r24, 0xFF	; 255
    1af6:	9f 4f       	sbci	r25, 0xFF	; 255
    1af8:	08 95       	ret

00001afa <__fp_split3>:
    1afa:	57 fd       	sbrc	r21, 7
    1afc:	90 58       	subi	r25, 0x80	; 128
    1afe:	44 0f       	add	r20, r20
    1b00:	55 1f       	adc	r21, r21
    1b02:	59 f0       	breq	.+22     	; 0x1b1a <__fp_splitA+0x10>
    1b04:	5f 3f       	cpi	r21, 0xFF	; 255
    1b06:	71 f0       	breq	.+28     	; 0x1b24 <__fp_splitA+0x1a>
    1b08:	47 95       	ror	r20

00001b0a <__fp_splitA>:
    1b0a:	88 0f       	add	r24, r24
    1b0c:	97 fb       	bst	r25, 7
    1b0e:	99 1f       	adc	r25, r25
    1b10:	61 f0       	breq	.+24     	; 0x1b2a <__fp_splitA+0x20>
    1b12:	9f 3f       	cpi	r25, 0xFF	; 255
    1b14:	79 f0       	breq	.+30     	; 0x1b34 <__fp_splitA+0x2a>
    1b16:	87 95       	ror	r24
    1b18:	08 95       	ret
    1b1a:	12 16       	cp	r1, r18
    1b1c:	13 06       	cpc	r1, r19
    1b1e:	14 06       	cpc	r1, r20
    1b20:	55 1f       	adc	r21, r21
    1b22:	f2 cf       	rjmp	.-28     	; 0x1b08 <__fp_split3+0xe>
    1b24:	46 95       	lsr	r20
    1b26:	f1 df       	rcall	.-30     	; 0x1b0a <__fp_splitA>
    1b28:	08 c0       	rjmp	.+16     	; 0x1b3a <__fp_splitA+0x30>
    1b2a:	16 16       	cp	r1, r22
    1b2c:	17 06       	cpc	r1, r23
    1b2e:	18 06       	cpc	r1, r24
    1b30:	99 1f       	adc	r25, r25
    1b32:	f1 cf       	rjmp	.-30     	; 0x1b16 <__fp_splitA+0xc>
    1b34:	86 95       	lsr	r24
    1b36:	71 05       	cpc	r23, r1
    1b38:	61 05       	cpc	r22, r1
    1b3a:	08 94       	sec
    1b3c:	08 95       	ret

00001b3e <__fp_zero>:
    1b3e:	e8 94       	clt

00001b40 <__fp_szero>:
    1b40:	bb 27       	eor	r27, r27
    1b42:	66 27       	eor	r22, r22
    1b44:	77 27       	eor	r23, r23
    1b46:	cb 01       	movw	r24, r22
    1b48:	97 f9       	bld	r25, 7
    1b4a:	08 95       	ret

00001b4c <__mulsf3>:
    1b4c:	0e 94 b9 0d 	call	0x1b72	; 0x1b72 <__mulsf3x>
    1b50:	0c 94 6c 0d 	jmp	0x1ad8	; 0x1ad8 <__fp_round>
    1b54:	0e 94 5e 0d 	call	0x1abc	; 0x1abc <__fp_pscA>
    1b58:	38 f0       	brcs	.+14     	; 0x1b68 <__mulsf3+0x1c>
    1b5a:	0e 94 65 0d 	call	0x1aca	; 0x1aca <__fp_pscB>
    1b5e:	20 f0       	brcs	.+8      	; 0x1b68 <__mulsf3+0x1c>
    1b60:	95 23       	and	r25, r21
    1b62:	11 f0       	breq	.+4      	; 0x1b68 <__mulsf3+0x1c>
    1b64:	0c 94 55 0d 	jmp	0x1aaa	; 0x1aaa <__fp_inf>
    1b68:	0c 94 5b 0d 	jmp	0x1ab6	; 0x1ab6 <__fp_nan>
    1b6c:	11 24       	eor	r1, r1
    1b6e:	0c 94 a0 0d 	jmp	0x1b40	; 0x1b40 <__fp_szero>

00001b72 <__mulsf3x>:
    1b72:	0e 94 7d 0d 	call	0x1afa	; 0x1afa <__fp_split3>
    1b76:	70 f3       	brcs	.-36     	; 0x1b54 <__mulsf3+0x8>

00001b78 <__mulsf3_pse>:
    1b78:	95 9f       	mul	r25, r21
    1b7a:	c1 f3       	breq	.-16     	; 0x1b6c <__mulsf3+0x20>
    1b7c:	95 0f       	add	r25, r21
    1b7e:	50 e0       	ldi	r21, 0x00	; 0
    1b80:	55 1f       	adc	r21, r21
    1b82:	62 9f       	mul	r22, r18
    1b84:	f0 01       	movw	r30, r0
    1b86:	72 9f       	mul	r23, r18
    1b88:	bb 27       	eor	r27, r27
    1b8a:	f0 0d       	add	r31, r0
    1b8c:	b1 1d       	adc	r27, r1
    1b8e:	63 9f       	mul	r22, r19
    1b90:	aa 27       	eor	r26, r26
    1b92:	f0 0d       	add	r31, r0
    1b94:	b1 1d       	adc	r27, r1
    1b96:	aa 1f       	adc	r26, r26
    1b98:	64 9f       	mul	r22, r20
    1b9a:	66 27       	eor	r22, r22
    1b9c:	b0 0d       	add	r27, r0
    1b9e:	a1 1d       	adc	r26, r1
    1ba0:	66 1f       	adc	r22, r22
    1ba2:	82 9f       	mul	r24, r18
    1ba4:	22 27       	eor	r18, r18
    1ba6:	b0 0d       	add	r27, r0
    1ba8:	a1 1d       	adc	r26, r1
    1baa:	62 1f       	adc	r22, r18
    1bac:	73 9f       	mul	r23, r19
    1bae:	b0 0d       	add	r27, r0
    1bb0:	a1 1d       	adc	r26, r1
    1bb2:	62 1f       	adc	r22, r18
    1bb4:	83 9f       	mul	r24, r19
    1bb6:	a0 0d       	add	r26, r0
    1bb8:	61 1d       	adc	r22, r1
    1bba:	22 1f       	adc	r18, r18
    1bbc:	74 9f       	mul	r23, r20
    1bbe:	33 27       	eor	r19, r19
    1bc0:	a0 0d       	add	r26, r0
    1bc2:	61 1d       	adc	r22, r1
    1bc4:	23 1f       	adc	r18, r19
    1bc6:	84 9f       	mul	r24, r20
    1bc8:	60 0d       	add	r22, r0
    1bca:	21 1d       	adc	r18, r1
    1bcc:	82 2f       	mov	r24, r18
    1bce:	76 2f       	mov	r23, r22
    1bd0:	6a 2f       	mov	r22, r26
    1bd2:	11 24       	eor	r1, r1
    1bd4:	9f 57       	subi	r25, 0x7F	; 127
    1bd6:	50 40       	sbci	r21, 0x00	; 0
    1bd8:	9a f0       	brmi	.+38     	; 0x1c00 <__mulsf3_pse+0x88>
    1bda:	f1 f0       	breq	.+60     	; 0x1c18 <__mulsf3_pse+0xa0>
    1bdc:	88 23       	and	r24, r24
    1bde:	4a f0       	brmi	.+18     	; 0x1bf2 <__mulsf3_pse+0x7a>
    1be0:	ee 0f       	add	r30, r30
    1be2:	ff 1f       	adc	r31, r31
    1be4:	bb 1f       	adc	r27, r27
    1be6:	66 1f       	adc	r22, r22
    1be8:	77 1f       	adc	r23, r23
    1bea:	88 1f       	adc	r24, r24
    1bec:	91 50       	subi	r25, 0x01	; 1
    1bee:	50 40       	sbci	r21, 0x00	; 0
    1bf0:	a9 f7       	brne	.-22     	; 0x1bdc <__mulsf3_pse+0x64>
    1bf2:	9e 3f       	cpi	r25, 0xFE	; 254
    1bf4:	51 05       	cpc	r21, r1
    1bf6:	80 f0       	brcs	.+32     	; 0x1c18 <__mulsf3_pse+0xa0>
    1bf8:	0c 94 55 0d 	jmp	0x1aaa	; 0x1aaa <__fp_inf>
    1bfc:	0c 94 a0 0d 	jmp	0x1b40	; 0x1b40 <__fp_szero>
    1c00:	5f 3f       	cpi	r21, 0xFF	; 255
    1c02:	e4 f3       	brlt	.-8      	; 0x1bfc <__mulsf3_pse+0x84>
    1c04:	98 3e       	cpi	r25, 0xE8	; 232
    1c06:	d4 f3       	brlt	.-12     	; 0x1bfc <__mulsf3_pse+0x84>
    1c08:	86 95       	lsr	r24
    1c0a:	77 95       	ror	r23
    1c0c:	67 95       	ror	r22
    1c0e:	b7 95       	ror	r27
    1c10:	f7 95       	ror	r31
    1c12:	e7 95       	ror	r30
    1c14:	9f 5f       	subi	r25, 0xFF	; 255
    1c16:	c1 f7       	brne	.-16     	; 0x1c08 <__mulsf3_pse+0x90>
    1c18:	fe 2b       	or	r31, r30
    1c1a:	88 0f       	add	r24, r24
    1c1c:	91 1d       	adc	r25, r1
    1c1e:	96 95       	lsr	r25
    1c20:	87 95       	ror	r24
    1c22:	97 f9       	bld	r25, 7
    1c24:	08 95       	ret

00001c26 <_exit>:
    1c26:	f8 94       	cli

00001c28 <__stop_program>:
    1c28:	ff cf       	rjmp	.-2      	; 0x1c28 <__stop_program>
